(lp0
(lp1
I2
aI3
aI5
aI6
aI9
aI10
aI11
aI13
aI14
aI16
aI18
aI20
aI23
aI24
aI25
aa(lp2
I1
aI4
aI5
aI6
aI7
aI9
aI11
aI12
aI13
aI15
aI16
aI19
aI20
aI23
aI24
aa(lp3
I1
aI4
aI6
aI7
aI8
aI9
aI10
aI11
aI12
aI14
aI16
aI17
aI20
aI23
aI24
aa(lp4
I1
aI2
aI4
aI5
aI8
aI10
aI12
aI13
aI16
aI17
aI18
aI19
aI23
aI24
aI25
aa(lp5
I1
aI2
aI4
aI8
aI9
aI11
aI12
aI13
aI15
aI16
aI19
aI20
aI23
aI24
aI25
aa(lp6
I1
aI2
aI4
aI5
aI6
aI7
aI10
aI12
aI15
aI16
aI17
aI19
aI21
aI23
aI25
aa(lp7
I1
aI4
aI7
aI8
aI10
aI12
aI14
aI15
aI16
aI18
aI19
aI21
aI22
aI23
aI25
aa(lp8
I1
aI5
aI6
aI8
aI9
aI10
aI13
aI15
aI16
aI17
aI18
aI19
aI20
aI22
aI25
aa(lp9
I3
aI4
aI5
aI9
aI10
aI11
aI13
aI15
aI16
aI17
aI19
aI20
aI21
aI24
aI25
aa(lp10
I2
aI3
aI4
aI5
aI6
aI8
aI9
aI10
aI11
aI12
aI14
aI19
aI20
aI23
aI24
aa(lp11
I2
aI6
aI7
aI8
aI9
aI10
aI11
aI12
aI16
aI19
aI20
aI22
aI23
aI24
aI25
aa(lp12
I1
aI2
aI4
aI5
aI7
aI8
aI9
aI10
aI11
aI12
aI14
aI16
aI17
aI24
aI25
aa(lp13
I3
aI5
aI6
aI7
aI8
aI9
aI10
aI11
aI13
aI14
aI15
aI16
aI17
aI19
aI23
aa(lp14
I1
aI2
aI5
aI6
aI7
aI9
aI13
aI14
aI15
aI18
aI19
aI20
aI21
aI23
aI25
aa(lp15
I1
aI2
aI4
aI6
aI8
aI10
aI12
aI15
aI16
aI18
aI19
aI21
aI23
aI24
aI25
aa(lp16
I2
aI5
aI6
aI7
aI8
aI10
aI12
aI13
aI15
aI17
aI19
aI21
aI23
aI24
aI25
aa(lp17
I1
aI2
aI3
aI5
aI6
aI7
aI9
aI13
aI14
aI16
aI17
aI18
aI19
aI20
aI21
aa(lp18
I2
aI6
aI7
aI8
aI10
aI11
aI14
aI15
aI17
aI18
aI19
aI20
aI22
aI23
aI24
aa(lp19
I2
aI5
aI6
aI7
aI8
aI10
aI11
aI13
aI14
aI15
aI16
aI17
aI20
aI23
aI24
aa(lp20
I3
aI4
aI6
aI7
aI8
aI9
aI10
aI14
aI16
aI17
aI18
aI19
aI20
aI23
aI24
aa(lp21
I1
aI2
aI4
aI5
aI8
aI11
aI14
aI16
aI18
aI19
aI20
aI22
aI23
aI24
aI25
aa(lp22
I1
aI2
aI3
aI4
aI5
aI6
aI7
aI9
aI10
aI12
aI13
aI14
aI15
aI22
aI25
aa(lp23
I1
aI3
aI4
aI5
aI6
aI8
aI10
aI11
aI12
aI14
aI16
aI17
aI18
aI19
aI20
aa(lp24
I1
aI2
aI3
aI5
aI7
aI10
aI11
aI14
aI17
aI19
aI20
aI21
aI23
aI24
aI25
aa(lp25
I1
aI2
aI3
aI4
aI5
aI6
aI7
aI9
aI13
aI14
aI16
aI20
aI22
aI23
aI24
aa(lp26
I5
aI7
aI8
aI9
aI10
aI11
aI13
aI14
aI16
aI17
aI19
aI20
aI21
aI22
aI23
aa(lp27
I3
aI6
aI8
aI10
aI11
aI12
aI13
aI14
aI15
aI18
aI20
aI21
aI22
aI24
aI25
aa(lp28
I1
aI3
aI7
aI9
aI10
aI11
aI12
aI13
aI14
aI16
aI17
aI18
aI19
aI20
aI21
aa(lp29
I1
aI4
aI5
aI6
aI8
aI9
aI13
aI14
aI16
aI17
aI19
aI20
aI21
aI22
aI24
aa(lp30
I1
aI2
aI3
aI4
aI6
aI7
aI8
aI11
aI14
aI17
aI19
aI20
aI21
aI22
aI23
aa(lp31
I1
aI2
aI3
aI4
aI9
aI13
aI14
aI15
aI17
aI19
aI20
aI21
aI22
aI24
aI25
aa(lp32
I1
aI2
aI4
aI6
aI7
aI9
aI10
aI11
aI14
aI15
aI16
aI17
aI20
aI22
aI23
aa(lp33
I1
aI2
aI5
aI7
aI8
aI10
aI11
aI12
aI14
aI16
aI19
aI20
aI21
aI23
aI24
aa(lp34
I1
aI2
aI4
aI7
aI8
aI9
aI10
aI11
aI15
aI16
aI18
aI19
aI20
aI21
aI23
aa(lp35
I1
aI4
aI5
aI6
aI11
aI12
aI13
aI14
aI16
aI17
aI19
aI21
aI22
aI23
aI25
aa(lp36
I1
aI4
aI5
aI7
aI8
aI10
aI11
aI14
aI17
aI19
aI20
aI21
aI22
aI23
aI24
aa(lp37
I1
aI3
aI4
aI5
aI8
aI9
aI10
aI11
aI13
aI15
aI20
aI21
aI22
aI23
aI24
aa(lp38
I1
aI2
aI3
aI6
aI7
aI8
aI9
aI10
aI13
aI14
aI15
aI16
aI22
aI24
aI25
aa(lp39
I2
aI7
aI8
aI9
aI11
aI13
aI14
aI15
aI17
aI18
aI19
aI21
aI22
aI23
aI24
aa(lp40
I1
aI2
aI5
aI7
aI8
aI10
aI12
aI13
aI14
aI16
aI17
aI20
aI21
aI22
aI24
aa(lp41
I2
aI3
aI4
aI9
aI12
aI13
aI15
aI16
aI17
aI18
aI19
aI20
aI21
aI23
aI25
aa(lp42
I1
aI3
aI4
aI5
aI6
aI8
aI11
aI12
aI14
aI15
aI17
aI21
aI22
aI24
aI25
aa(lp43
I1
aI3
aI6
aI7
aI8
aI9
aI10
aI14
aI17
aI18
aI19
aI20
aI22
aI23
aI24
aa(lp44
I3
aI4
aI5
aI6
aI10
aI11
aI12
aI13
aI14
aI18
aI19
aI21
aI23
aI24
aI25
aa(lp45
I1
aI2
aI3
aI5
aI7
aI9
aI14
aI16
aI17
aI18
aI19
aI21
aI23
aI24
aI25
aa(lp46
I1
aI2
aI4
aI5
aI6
aI8
aI10
aI11
aI14
aI18
aI19
aI21
aI23
aI24
aI25
aa(lp47
I1
aI2
aI3
aI4
aI5
aI6
aI8
aI10
aI11
aI13
aI15
aI18
aI20
aI22
aI25
aa(lp48
I2
aI5
aI6
aI7
aI11
aI13
aI15
aI16
aI17
aI18
aI19
aI20
aI21
aI22
aI23
aa(lp49
I2
aI4
aI5
aI6
aI8
aI11
aI13
aI15
aI16
aI19
aI20
aI21
aI22
aI23
aI24
aa(lp50
I1
aI2
aI3
aI6
aI7
aI9
aI10
aI11
aI12
aI13
aI19
aI20
aI21
aI23
aI25
aa(lp51
I1
aI3
aI5
aI6
aI7
aI8
aI11
aI13
aI14
aI16
aI17
aI20
aI21
aI22
aI23
aa(lp52
I1
aI2
aI4
aI8
aI9
aI11
aI12
aI13
aI15
aI16
aI21
aI22
aI23
aI24
aI25
aa(lp53
I1
aI2
aI3
aI6
aI7
aI9
aI11
aI12
aI14
aI17
aI18
aI19
aI20
aI23
aI24
aa(lp54
I2
aI4
aI5
aI6
aI7
aI8
aI9
aI12
aI14
aI16
aI18
aI20
aI21
aI22
aI24
aa(lp55
I2
aI3
aI4
aI5
aI6
aI7
aI8
aI9
aI12
aI13
aI15
aI16
aI18
aI19
aI25
aa(lp56
I1
aI2
aI5
aI9
aI12
aI13
aI14
aI15
aI16
aI17
aI19
aI20
aI22
aI23
aI24
aa(lp57
I1
aI2
aI3
aI4
aI6
aI7
aI8
aI11
aI12
aI17
aI19
aI20
aI21
aI22
aI25
aa(lp58
I3
aI4
aI5
aI6
aI11
aI12
aI13
aI14
aI15
aI16
aI17
aI18
aI19
aI20
aI22
aa(lp59
I1
aI3
aI5
aI6
aI7
aI8
aI10
aI11
aI13
aI14
aI15
aI19
aI20
aI23
aI25
aa(lp60
I1
aI2
aI3
aI4
aI5
aI8
aI11
aI16
aI17
aI18
aI19
aI22
aI23
aI24
aI25
aa(lp61
I1
aI4
aI5
aI9
aI11
aI12
aI13
aI14
aI15
aI16
aI19
aI20
aI22
aI23
aI25
aa(lp62
I1
aI3
aI7
aI8
aI9
aI11
aI13
aI14
aI15
aI16
aI17
aI18
aI20
aI24
aI25
aa(lp63
I4
aI8
aI9
aI10
aI11
aI12
aI13
aI16
aI17
aI19
aI20
aI21
aI22
aI24
aI25
aa(lp64
I1
aI2
aI3
aI6
aI7
aI8
aI9
aI10
aI13
aI14
aI17
aI18
aI20
aI23
aI25
aa(lp65
I1
aI2
aI4
aI7
aI10
aI15
aI16
aI17
aI18
aI19
aI20
aI21
aI22
aI23
aI25
aa(lp66
I1
aI2
aI4
aI8
aI10
aI11
aI14
aI15
aI16
aI17
aI20
aI21
aI22
aI23
aI24
aa(lp67
I5
aI7
aI8
aI9
aI10
aI11
aI12
aI13
aI15
aI16
aI20
aI21
aI22
aI23
aI24
aa(lp68
I1
aI2
aI3
aI5
aI6
aI7
aI8
aI9
aI10
aI12
aI16
aI17
aI23
aI24
aI25
aa(lp69
I1
aI4
aI7
aI8
aI9
aI10
aI15
aI17
aI18
aI19
aI20
aI21
aI23
aI24
aI25
aa(lp70
I1
aI2
aI3
aI5
aI6
aI9
aI10
aI12
aI14
aI15
aI16
aI19
aI20
aI24
aI25
aa(lp71
I1
aI3
aI5
aI6
aI8
aI9
aI11
aI13
aI14
aI15
aI16
aI18
aI21
aI22
aI23
aa(lp72
I1
aI2
aI3
aI7
aI8
aI11
aI12
aI13
aI15
aI16
aI17
aI18
aI23
aI24
aI25
aa(lp73
I1
aI2
aI5
aI7
aI10
aI11
aI13
aI14
aI15
aI16
aI17
aI18
aI19
aI21
aI25
aa(lp74
I1
aI2
aI3
aI4
aI5
aI6
aI8
aI11
aI13
aI15
aI16
aI18
aI22
aI23
aI25
aa(lp75
I1
aI3
aI4
aI5
aI6
aI7
aI8
aI10
aI11
aI13
aI15
aI16
aI17
aI20
aI25
aa(lp76
I1
aI3
aI5
aI8
aI9
aI10
aI12
aI13
aI15
aI16
aI17
aI19
aI21
aI23
aI25
aa(lp77
I2
aI3
aI4
aI6
aI8
aI9
aI11
aI14
aI17
aI18
aI20
aI21
aI22
aI24
aI25
aa(lp78
I1
aI2
aI3
aI5
aI6
aI7
aI8
aI12
aI13
aI15
aI16
aI17
aI18
aI20
aI23
aa(lp79
I1
aI2
aI3
aI5
aI9
aI12
aI14
aI15
aI17
aI18
aI20
aI22
aI23
aI24
aI25
aa(lp80
I1
aI2
aI3
aI4
aI5
aI7
aI9
aI10
aI14
aI15
aI17
aI18
aI20
aI22
aI25
aa(lp81
I1
aI2
aI3
aI4
aI5
aI6
aI7
aI10
aI11
aI13
aI15
aI16
aI17
aI19
aI21
aa(lp82
I1
aI4
aI5
aI6
aI8
aI9
aI12
aI13
aI15
aI17
aI18
aI19
aI20
aI22
aI23
aa(lp83
I1
aI2
aI3
aI5
aI6
aI8
aI10
aI11
aI12
aI13
aI14
aI20
aI23
aI24
aI25
aa(lp84
I1
aI2
aI4
aI6
aI8
aI12
aI15
aI16
aI17
aI19
aI20
aI22
aI23
aI24
aI25
aa(lp85
I1
aI2
aI5
aI7
aI8
aI9
aI11
aI13
aI14
aI15
aI16
aI18
aI21
aI22
aI23
aa(lp86
I2
aI4
aI5
aI6
aI8
aI9
aI12
aI13
aI14
aI17
aI18
aI19
aI23
aI24
aI25
aa(lp87
I1
aI2
aI3
aI5
aI8
aI9
aI10
aI11
aI13
aI15
aI18
aI20
aI22
aI24
aI25
aa(lp88
I1
aI2
aI4
aI5
aI8
aI9
aI10
aI11
aI12
aI14
aI17
aI18
aI19
aI24
aI25
aa(lp89
I1
aI6
aI11
aI12
aI13
aI15
aI16
aI17
aI19
aI20
aI21
aI22
aI23
aI24
aI25
aa(lp90
I1
aI2
aI3
aI8
aI10
aI11
aI12
aI15
aI17
aI20
aI21
aI22
aI23
aI24
aI25
aa(lp91
I1
aI4
aI9
aI10
aI11
aI12
aI13
aI14
aI15
aI16
aI17
aI20
aI22
aI23
aI25
aa(lp92
I1
aI2
aI4
aI6
aI8
aI12
aI13
aI14
aI15
aI17
aI18
aI19
aI21
aI22
aI24
aa(lp93
I2
aI4
aI5
aI6
aI7
aI9
aI10
aI13
aI17
aI18
aI19
aI20
aI21
aI23
aI24
aa(lp94
I2
aI4
aI8
aI9
aI11
aI12
aI13
aI15
aI16
aI17
aI18
aI21
aI22
aI23
aI24
aa(lp95
I1
aI2
aI3
aI4
aI5
aI10
aI11
aI12
aI14
aI15
aI17
aI18
aI19
aI20
aI22
aa(lp96
I3
aI4
aI6
aI9
aI10
aI12
aI14
aI16
aI17
aI18
aI19
aI21
aI22
aI23
aI24
aa(lp97
I3
aI4
aI6
aI10
aI12
aI13
aI14
aI15
aI17
aI19
aI20
aI22
aI23
aI24
aI25
aa(lp98
I1
aI2
aI5
aI6
aI8
aI10
aI11
aI15
aI17
aI18
aI20
aI22
aI23
aI24
aI25
aa(lp99
I1
aI2
aI3
aI4
aI7
aI10
aI11
aI13
aI14
aI16
aI17
aI20
aI21
aI24
aI25
aa(lp100
I1
aI3
aI4
aI8
aI9
aI10
aI11
aI12
aI13
aI14
aI16
aI17
aI22
aI23
aI25
aa(lp101
I1
aI3
aI6
aI7
aI9
aI10
aI13
aI14
aI16
aI17
aI19
aI20
aI21
aI23
aI24
aa(lp102
I1
aI2
aI3
aI4
aI7
aI9
aI10
aI11
aI12
aI18
aI19
aI21
aI22
aI23
aI25
aa(lp103
I1
aI2
aI3
aI4
aI5
aI7
aI8
aI10
aI11
aI16
aI17
aI18
aI22
aI23
aI25
aa(lp104
I5
aI6
aI7
aI10
aI11
aI13
aI14
aI15
aI16
aI18
aI19
aI21
aI22
aI24
aI25
aa(lp105
I4
aI6
aI7
aI8
aI9
aI10
aI11
aI12
aI13
aI15
aI17
aI19
aI21
aI22
aI25
aa(lp106
I1
aI2
aI3
aI4
aI5
aI6
aI10
aI12
aI13
aI14
aI15
aI17
aI22
aI23
aI25
aa(lp107
I1
aI3
aI4
aI6
aI7
aI8
aI9
aI11
aI12
aI15
aI17
aI18
aI21
aI24
aI25
aa(lp108
I1
aI2
aI4
aI7
aI8
aI9
aI11
aI12
aI14
aI15
aI16
aI18
aI22
aI23
aI25
aa(lp109
I1
aI3
aI5
aI7
aI9
aI11
aI12
aI13
aI16
aI18
aI20
aI21
aI23
aI24
aI25
aa(lp110
I1
aI3
aI4
aI5
aI6
aI12
aI13
aI14
aI17
aI19
aI20
aI21
aI22
aI23
aI25
aa(lp111
I1
aI5
aI6
aI10
aI11
aI12
aI13
aI15
aI17
aI18
aI19
aI21
aI22
aI24
aI25
aa(lp112
I1
aI2
aI3
aI4
aI6
aI10
aI11
aI14
aI15
aI17
aI18
aI19
aI20
aI21
aI23
aa(lp113
I1
aI2
aI4
aI5
aI6
aI8
aI11
aI12
aI13
aI14
aI19
aI20
aI21
aI24
aI25
aa(lp114
I1
aI2
aI3
aI6
aI7
aI8
aI9
aI10
aI11
aI14
aI20
aI21
aI22
aI24
aI25
aa(lp115
I1
aI4
aI5
aI6
aI7
aI9
aI11
aI12
aI13
aI16
aI17
aI18
aI20
aI21
aI25
aa(lp116
I1
aI2
aI9
aI10
aI11
aI12
aI13
aI14
aI16
aI18
aI19
aI20
aI21
aI23
aI25
aa(lp117
I5
aI6
aI7
aI9
aI10
aI11
aI12
aI13
aI14
aI15
aI17
aI18
aI20
aI23
aI25
aa(lp118
I2
aI4
aI5
aI6
aI8
aI12
aI13
aI14
aI15
aI18
aI19
aI21
aI22
aI23
aI24
aa(lp119
I1
aI4
aI6
aI8
aI9
aI10
aI11
aI15
aI17
aI18
aI20
aI21
aI22
aI23
aI24
aa(lp120
I1
aI3
aI5
aI7
aI8
aI11
aI12
aI13
aI15
aI16
aI18
aI19
aI20
aI21
aI24
aa(lp121
I1
aI2
aI4
aI5
aI7
aI9
aI10
aI11
aI12
aI16
aI17
aI18
aI23
aI24
aI25
aa(lp122
I1
aI2
aI4
aI5
aI8
aI9
aI10
aI13
aI15
aI17
aI18
aI20
aI22
aI23
aI25
aa(lp123
I4
aI5
aI6
aI7
aI11
aI12
aI13
aI17
aI18
aI19
aI20
aI21
aI22
aI23
aI24
aa(lp124
I2
aI3
aI4
aI6
aI7
aI9
aI14
aI15
aI16
aI18
aI19
aI20
aI21
aI24
aI25
aa(lp125
I2
aI3
aI4
aI6
aI7
aI9
aI10
aI11
aI12
aI15
aI16
aI21
aI22
aI24
aI25
aa(lp126
I1
aI2
aI3
aI4
aI6
aI7
aI8
aI13
aI14
aI16
aI18
aI21
aI22
aI24
aI25
aa(lp127
I1
aI2
aI3
aI4
aI5
aI7
aI10
aI11
aI12
aI13
aI18
aI19
aI22
aI23
aI25
aa(lp128
I2
aI3
aI4
aI6
aI11
aI13
aI14
aI15
aI16
aI17
aI19
aI20
aI21
aI23
aI25
aa(lp129
I2
aI5
aI6
aI7
aI9
aI11
aI13
aI15
aI18
aI19
aI20
aI21
aI22
aI23
aI25
aa(lp130
I2
aI3
aI4
aI5
aI6
aI9
aI10
aI12
aI13
aI15
aI17
aI19
aI23
aI24
aI25
aa(lp131
I2
aI4
aI5
aI6
aI7
aI8
aI11
aI12
aI13
aI15
aI19
aI20
aI22
aI23
aI25
aa(lp132
I1
aI3
aI4
aI5
aI7
aI9
aI10
aI11
aI14
aI15
aI16
aI17
aI22
aI23
aI25
aa(lp133
I1
aI3
aI4
aI5
aI8
aI9
aI11
aI13
aI15
aI18
aI19
aI20
aI21
aI22
aI23
aa(lp134
I1
aI3
aI5
aI7
aI8
aI10
aI11
aI12
aI13
aI14
aI16
aI17
aI19
aI22
aI25
aa(lp135
I1
aI2
aI5
aI7
aI8
aI10
aI13
aI14
aI15
aI18
aI19
aI20
aI21
aI22
aI25
aa(lp136
I1
aI2
aI3
aI5
aI6
aI9
aI12
aI13
aI14
aI15
aI17
aI21
aI22
aI23
aI24
aa(lp137
I2
aI6
aI8
aI9
aI10
aI11
aI12
aI13
aI16
aI17
aI18
aI19
aI20
aI21
aI25
aa(lp138
I2
aI3
aI4
aI5
aI7
aI8
aI11
aI13
aI15
aI16
aI17
aI21
aI22
aI24
aI25
aa(lp139
I1
aI2
aI7
aI9
aI12
aI14
aI15
aI16
aI17
aI18
aI19
aI21
aI22
aI23
aI24
aa(lp140
I1
aI2
aI3
aI6
aI9
aI10
aI12
aI13
aI15
aI18
aI19
aI20
aI22
aI24
aI25
aa(lp141
I1
aI3
aI7
aI8
aI9
aI10
aI12
aI13
aI16
aI17
aI18
aI19
aI20
aI24
aI25
aa(lp142
I1
aI2
aI4
aI5
aI6
aI7
aI9
aI15
aI16
aI17
aI18
aI19
aI22
aI23
aI24
aa(lp143
I1
aI2
aI8
aI9
aI11
aI13
aI15
aI16
aI17
aI19
aI21
aI22
aI23
aI24
aI25
aa(lp144
I1
aI2
aI4
aI7
aI9
aI11
aI12
aI14
aI17
aI19
aI20
aI21
aI22
aI24
aI25
aa(lp145
I1
aI2
aI3
aI9
aI10
aI11
aI13
aI14
aI15
aI17
aI18
aI20
aI22
aI24
aI25
aa(lp146
I1
aI2
aI5
aI8
aI10
aI11
aI12
aI13
aI14
aI16
aI17
aI22
aI23
aI24
aI25
aa(lp147
I1
aI2
aI4
aI5
aI6
aI10
aI11
aI12
aI13
aI16
aI19
aI21
aI22
aI23
aI25
aa(lp148
I1
aI2
aI4
aI5
aI8
aI9
aI12
aI13
aI16
aI17
aI20
aI21
aI22
aI24
aI25
aa(lp149
I2
aI5
aI7
aI9
aI10
aI13
aI15
aI16
aI17
aI18
aI19
aI20
aI23
aI24
aI25
aa(lp150
I1
aI3
aI5
aI6
aI7
aI8
aI9
aI11
aI14
aI19
aI21
aI22
aI23
aI24
aI25
aa(lp151
I3
aI4
aI5
aI7
aI9
aI10
aI11
aI12
aI13
aI14
aI16
aI18
aI20
aI23
aI24
aa(lp152
I3
aI4
aI5
aI6
aI7
aI8
aI13
aI15
aI17
aI19
aI20
aI22
aI23
aI24
aI25
aa(lp153
I1
aI2
aI4
aI5
aI8
aI11
aI12
aI13
aI17
aI18
aI20
aI21
aI23
aI24
aI25
aa(lp154
I1
aI2
aI3
aI5
aI6
aI9
aI10
aI11
aI13
aI14
aI15
aI16
aI18
aI23
aI24
aa(lp155
I2
aI4
aI5
aI8
aI10
aI11
aI14
aI15
aI16
aI18
aI19
aI20
aI21
aI22
aI24
aa(lp156
I1
aI3
aI4
aI8
aI9
aI10
aI11
aI12
aI13
aI14
aI15
aI19
aI20
aI22
aI23
aa(lp157
I1
aI2
aI4
aI6
aI7
aI9
aI10
aI12
aI14
aI16
aI18
aI19
aI21
aI24
aI25
aa(lp158
I2
aI7
aI8
aI9
aI10
aI11
aI12
aI15
aI16
aI17
aI18
aI19
aI20
aI22
aI23
aa(lp159
I1
aI2
aI3
aI4
aI5
aI6
aI8
aI10
aI11
aI14
aI15
aI17
aI20
aI24
aI25
aa(lp160
I1
aI3
aI4
aI9
aI10
aI11
aI12
aI14
aI15
aI16
aI17
aI19
aI20
aI21
aI24
aa(lp161
I1
aI5
aI8
aI11
aI13
aI15
aI16
aI17
aI18
aI20
aI21
aI22
aI23
aI24
aI25
aa(lp162
I1
aI2
aI3
aI4
aI5
aI6
aI8
aI11
aI12
aI13
aI16
aI18
aI20
aI23
aI24
aa(lp163
I1
aI2
aI3
aI5
aI6
aI7
aI9
aI13
aI14
aI15
aI20
aI21
aI23
aI24
aI25
aa(lp164
I1
aI2
aI3
aI5
aI6
aI8
aI10
aI11
aI14
aI15
aI18
aI21
aI22
aI23
aI24
aa(lp165
I1
aI2
aI4
aI6
aI8
aI9
aI12
aI13
aI14
aI15
aI17
aI18
aI19
aI22
aI25
aa(lp166
I2
aI3
aI4
aI8
aI9
aI10
aI13
aI14
aI15
aI18
aI19
aI20
aI21
aI22
aI23
aa(lp167
I1
aI2
aI3
aI6
aI8
aI9
aI10
aI13
aI14
aI16
aI18
aI19
aI22
aI23
aI24
aa(lp168
I1
aI2
aI3
aI4
aI7
aI10
aI12
aI15
aI16
aI17
aI19
aI20
aI22
aI23
aI24
aa(lp169
I1
aI4
aI5
aI6
aI7
aI8
aI9
aI10
aI11
aI12
aI15
aI16
aI20
aI21
aI24
aa(lp170
I1
aI3
aI4
aI5
aI6
aI7
aI8
aI10
aI13
aI16
aI18
aI20
aI22
aI23
aI25
aa(lp171
I1
aI3
aI4
aI10
aI11
aI12
aI13
aI15
aI16
aI17
aI21
aI22
aI23
aI24
aI25
aa(lp172
I1
aI2
aI4
aI6
aI7
aI9
aI10
aI11
aI12
aI13
aI18
aI20
aI21
aI22
aI25
aa(lp173
I2
aI3
aI4
aI5
aI7
aI8
aI11
aI15
aI19
aI20
aI21
aI22
aI23
aI24
aI25
aa(lp174
I1
aI2
aI4
aI7
aI9
aI10
aI11
aI12
aI13
aI15
aI17
aI20
aI23
aI24
aI25
aa(lp175
I2
aI3
aI5
aI6
aI7
aI11
aI12
aI13
aI14
aI15
aI16
aI18
aI19
aI21
aI24
aa(lp176
I2
aI4
aI10
aI11
aI12
aI13
aI15
aI16
aI17
aI18
aI21
aI22
aI23
aI24
aI25
aa(lp177
I2
aI6
aI7
aI8
aI10
aI11
aI13
aI15
aI16
aI17
aI19
aI20
aI21
aI23
aI24
aa(lp178
I2
aI3
aI4
aI6
aI8
aI9
aI10
aI14
aI16
aI19
aI20
aI21
aI23
aI24
aI25
aa(lp179
I2
aI3
aI4
aI5
aI7
aI9
aI13
aI14
aI15
aI17
aI19
aI22
aI23
aI24
aI25
aa(lp180
I1
aI2
aI3
aI4
aI5
aI6
aI7
aI8
aI10
aI11
aI15
aI17
aI20
aI24
aI25
aa(lp181
I1
aI4
aI5
aI6
aI7
aI8
aI14
aI15
aI16
aI17
aI19
aI20
aI21
aI22
aI23
aa(lp182
I2
aI3
aI4
aI7
aI8
aI9
aI11
aI13
aI14
aI17
aI19
aI21
aI22
aI23
aI25
aa(lp183
I2
aI4
aI6
aI7
aI8
aI11
aI13
aI14
aI16
aI19
aI20
aI21
aI23
aI24
aI25
aa(lp184
I1
aI3
aI7
aI8
aI9
aI10
aI11
aI15
aI16
aI17
aI18
aI19
aI21
aI23
aI25
aa(lp185
I1
aI2
aI4
aI6
aI7
aI8
aI9
aI11
aI12
aI15
aI17
aI19
aI20
aI23
aI25
aa(lp186
I2
aI4
aI5
aI6
aI11
aI12
aI13
aI16
aI17
aI18
aI19
aI22
aI23
aI24
aI25
aa(lp187
I1
aI3
aI11
aI12
aI13
aI15
aI16
aI17
aI18
aI19
aI21
aI22
aI23
aI24
aI25
aa(lp188
I2
aI3
aI5
aI8
aI10
aI11
aI13
aI16
aI19
aI20
aI21
aI22
aI23
aI24
aI25
aa(lp189
I1
aI2
aI4
aI5
aI6
aI7
aI9
aI13
aI16
aI18
aI19
aI20
aI22
aI23
aI24
aa(lp190
I1
aI3
aI4
aI5
aI7
aI8
aI11
aI13
aI14
aI15
aI16
aI18
aI19
aI23
aI24
aa(lp191
I2
aI5
aI8
aI9
aI10
aI12
aI13
aI15
aI17
aI18
aI19
aI20
aI21
aI22
aI23
aa(lp192
I1
aI2
aI3
aI4
aI5
aI6
aI11
aI13
aI14
aI15
aI16
aI21
aI22
aI23
aI24
aa(lp193
I1
aI2
aI3
aI4
aI5
aI8
aI9
aI10
aI14
aI15
aI16
aI19
aI20
aI21
aI25
aa(lp194
I2
aI7
aI8
aI9
aI10
aI12
aI13
aI14
aI15
aI17
aI18
aI21
aI22
aI23
aI25
aa(lp195
I2
aI3
aI4
aI6
aI7
aI8
aI9
aI11
aI12
aI14
aI17
aI18
aI19
aI22
aI23
aa(lp196
I2
aI3
aI4
aI5
aI10
aI14
aI15
aI16
aI17
aI19
aI20
aI22
aI23
aI24
aI25
aa(lp197
I3
aI4
aI5
aI6
aI7
aI8
aI9
aI10
aI12
aI13
aI18
aI20
aI21
aI22
aI23
aa(lp198
I1
aI2
aI4
aI5
aI6
aI7
aI13
aI14
aI15
aI16
aI17
aI18
aI20
aI21
aI25
aa(lp199
I1
aI2
aI3
aI4
aI5
aI6
aI9
aI11
aI12
aI15
aI19
aI20
aI21
aI22
aI23
aa(lp200
I1
aI2
aI4
aI5
aI8
aI9
aI11
aI12
aI13
aI14
aI15
aI16
aI21
aI23
aI24
aa(lp201
I1
aI2
aI4
aI5
aI8
aI9
aI10
aI11
aI12
aI13
aI14
aI15
aI19
aI20
aI22
aa(lp202
I1
aI3
aI5
aI10
aI11
aI13
aI14
aI16
aI17
aI18
aI19
aI21
aI22
aI23
aI24
aa(lp203
I1
aI2
aI3
aI4
aI5
aI6
aI7
aI12
aI13
aI14
aI17
aI18
aI23
aI24
aI25
aa(lp204
I2
aI3
aI4
aI5
aI7
aI8
aI11
aI14
aI15
aI16
aI17
aI22
aI23
aI24
aI25
aa(lp205
I2
aI3
aI4
aI9
aI10
aI11
aI12
aI14
aI15
aI16
aI17
aI18
aI21
aI22
aI25
aa(lp206
I2
aI3
aI5
aI8
aI9
aI11
aI12
aI13
aI14
aI15
aI16
aI17
aI20
aI21
aI22
aa(lp207
I1
aI2
aI3
aI4
aI6
aI9
aI10
aI12
aI13
aI14
aI15
aI17
aI19
aI20
aI22
aa(lp208
I1
aI3
aI4
aI6
aI7
aI9
aI10
aI11
aI12
aI14
aI15
aI16
aI19
aI23
aI24
aa(lp209
I1
aI3
aI5
aI6
aI7
aI9
aI10
aI14
aI15
aI18
aI19
aI21
aI22
aI24
aI25
aa(lp210
I3
aI5
aI7
aI9
aI10
aI11
aI13
aI14
aI15
aI16
aI18
aI21
aI22
aI23
aI24
aa(lp211
I1
aI2
aI4
aI6
aI8
aI10
aI11
aI12
aI14
aI16
aI17
aI18
aI22
aI24
aI25
aa(lp212
I1
aI3
aI4
aI6
aI8
aI9
aI10
aI11
aI12
aI14
aI16
aI19
aI20
aI22
aI23
aa(lp213
I1
aI3
aI4
aI5
aI8
aI9
aI10
aI11
aI16
aI18
aI19
aI21
aI23
aI24
aI25
aa(lp214
I1
aI2
aI3
aI4
aI9
aI11
aI13
aI14
aI15
aI18
aI19
aI20
aI22
aI24
aI25
aa(lp215
I1
aI3
aI4
aI5
aI7
aI9
aI11
aI12
aI14
aI15
aI17
aI18
aI19
aI23
aI25
aa(lp216
I2
aI3
aI4
aI5
aI6
aI7
aI9
aI10
aI11
aI13
aI17
aI19
aI21
aI24
aI25
aa(lp217
I2
aI3
aI4
aI5
aI6
aI7
aI9
aI10
aI11
aI12
aI16
aI17
aI19
aI21
aI25
aa(lp218
I2
aI5
aI7
aI8
aI11
aI12
aI13
aI14
aI15
aI16
aI17
aI20
aI21
aI22
aI25
aa(lp219
I2
aI3
aI6
aI8
aI9
aI11
aI14
aI16
aI17
aI18
aI19
aI22
aI23
aI24
aI25
aa(lp220
I5
aI9
aI10
aI12
aI13
aI14
aI15
aI16
aI17
aI18
aI20
aI21
aI23
aI24
aI25
aa(lp221
I1
aI2
aI3
aI6
aI7
aI8
aI10
aI12
aI16
aI17
aI19
aI20
aI21
aI23
aI25
aa(lp222
I1
aI3
aI4
aI5
aI6
aI7
aI8
aI9
aI12
aI15
aI18
aI21
aI22
aI23
aI24
aa(lp223
I2
aI4
aI7
aI9
aI10
aI11
aI12
aI13
aI14
aI16
aI20
aI21
aI22
aI23
aI24
aa(lp224
I4
aI6
aI8
aI9
aI10
aI11
aI12
aI13
aI15
aI18
aI19
aI20
aI21
aI23
aI24
aa(lp225
I1
aI2
aI3
aI5
aI7
aI8
aI13
aI14
aI15
aI18
aI19
aI20
aI22
aI23
aI25
aa(lp226
I4
aI5
aI8
aI10
aI11
aI13
aI14
aI15
aI16
aI17
aI18
aI19
aI20
aI21
aI25
aa(lp227
I1
aI5
aI7
aI8
aI9
aI10
aI12
aI14
aI15
aI17
aI18
aI19
aI20
aI21
aI22
aa(lp228
I2
aI4
aI10
aI11
aI12
aI13
aI14
aI15
aI16
aI17
aI18
aI19
aI20
aI24
aI25
aa(lp229
I2
aI6
aI8
aI9
aI10
aI11
aI12
aI13
aI14
aI15
aI16
aI17
aI20
aI23
aI25
aa(lp230
I1
aI2
aI3
aI4
aI5
aI6
aI8
aI10
aI11
aI13
aI14
aI15
aI17
aI22
aI24
aa(lp231
I1
aI2
aI5
aI6
aI7
aI10
aI12
aI15
aI16
aI17
aI18
aI19
aI21
aI24
aI25
aa(lp232
I4
aI5
aI6
aI9
aI11
aI12
aI13
aI14
aI16
aI17
aI18
aI21
aI23
aI24
aI25
aa(lp233
I1
aI2
aI3
aI4
aI5
aI6
aI7
aI8
aI9
aI12
aI13
aI14
aI17
aI19
aI21
aa(lp234
I1
aI2
aI3
aI4
aI5
aI9
aI11
aI12
aI13
aI14
aI15
aI17
aI21
aI22
aI24
aa(lp235
I1
aI8
aI10
aI12
aI13
aI14
aI15
aI16
aI17
aI18
aI19
aI21
aI23
aI24
aI25
aa(lp236
I1
aI3
aI4
aI5
aI7
aI8
aI9
aI12
aI13
aI15
aI16
aI21
aI22
aI23
aI25
aa(lp237
I4
aI5
aI6
aI7
aI9
aI12
aI13
aI15
aI16
aI18
aI19
aI20
aI21
aI22
aI23
aa(lp238
I1
aI3
aI4
aI6
aI11
aI12
aI13
aI14
aI15
aI17
aI19
aI20
aI21
aI23
aI24
aa(lp239
I1
aI3
aI5
aI6
aI7
aI9
aI10
aI13
aI14
aI15
aI16
aI19
aI22
aI23
aI25
aa(lp240
I1
aI2
aI4
aI9
aI10
aI11
aI13
aI14
aI15
aI16
aI18
aI19
aI21
aI22
aI23
aa(lp241
I3
aI4
aI5
aI8
aI9
aI12
aI13
aI14
aI15
aI17
aI20
aI21
aI23
aI24
aI25
aa(lp242
I2
aI5
aI6
aI8
aI9
aI13
aI14
aI15
aI16
aI17
aI18
aI19
aI21
aI22
aI23
aa(lp243
I1
aI2
aI3
aI4
aI5
aI7
aI12
aI13
aI16
aI17
aI18
aI20
aI21
aI23
aI25
aa(lp244
I3
aI5
aI6
aI7
aI9
aI10
aI11
aI12
aI14
aI15
aI18
aI20
aI21
aI22
aI24
aa(lp245
I1
aI2
aI6
aI7
aI9
aI10
aI11
aI12
aI14
aI15
aI16
aI18
aI19
aI24
aI25
aa(lp246
I1
aI4
aI5
aI7
aI8
aI9
aI10
aI12
aI13
aI15
aI17
aI18
aI21
aI24
aI25
aa(lp247
I1
aI2
aI3
aI4
aI7
aI8
aI9
aI14
aI15
aI16
aI17
aI19
aI22
aI23
aI25
aa(lp248
I1
aI2
aI5
aI8
aI9
aI10
aI11
aI12
aI13
aI15
aI16
aI19
aI20
aI21
aI25
aa(lp249
I4
aI5
aI7
aI8
aI9
aI10
aI12
aI14
aI15
aI17
aI18
aI21
aI22
aI23
aI25
aa(lp250
I1
aI2
aI3
aI5
aI9
aI10
aI12
aI13
aI15
aI16
aI17
aI18
aI19
aI21
aI23
aa(lp251
I3
aI4
aI5
aI6
aI9
aI10
aI13
aI15
aI16
aI18
aI19
aI21
aI22
aI23
aI25
aa(lp252
I2
aI3
aI4
aI6
aI8
aI11
aI14
aI15
aI17
aI18
aI19
aI22
aI23
aI24
aI25
aa(lp253
I1
aI4
aI5
aI6
aI7
aI8
aI11
aI12
aI13
aI15
aI18
aI19
aI21
aI22
aI23
aa(lp254
I2
aI3
aI4
aI5
aI6
aI7
aI8
aI9
aI11
aI13
aI14
aI15
aI16
aI20
aI23
aa(lp255
I1
aI2
aI3
aI4
aI6
aI9
aI10
aI14
aI15
aI16
aI17
aI21
aI22
aI23
aI24
aa(lp256
I1
aI2
aI6
aI7
aI8
aI9
aI10
aI12
aI13
aI15
aI16
aI18
aI20
aI22
aI24
aa(lp257
I1
aI3
aI6
aI7
aI9
aI10
aI12
aI13
aI14
aI16
aI17
aI18
aI19
aI22
aI24
aa(lp258
I2
aI4
aI5
aI6
aI9
aI12
aI13
aI14
aI17
aI19
aI20
aI21
aI22
aI24
aI25
aa(lp259
I3
aI5
aI6
aI7
aI8
aI9
aI10
aI15
aI18
aI19
aI20
aI21
aI22
aI24
aI25
aa(lp260
I1
aI3
aI4
aI5
aI6
aI7
aI8
aI9
aI11
aI13
aI14
aI18
aI19
aI20
aI24
aa(lp261
I1
aI2
aI4
aI5
aI6
aI7
aI11
aI13
aI15
aI16
aI17
aI19
aI20
aI21
aI25
aa(lp262
I3
aI4
aI6
aI7
aI8
aI9
aI12
aI13
aI14
aI15
aI17
aI20
aI21
aI23
aI24
aa(lp263
I1
aI4
aI7
aI8
aI9
aI10
aI11
aI14
aI15
aI16
aI18
aI19
aI21
aI23
aI24
aa(lp264
I1
aI3
aI4
aI6
aI8
aI9
aI12
aI13
aI16
aI19
aI20
aI21
aI22
aI23
aI25
aa(lp265
I1
aI5
aI7
aI8
aI11
aI12
aI13
aI15
aI16
aI17
aI18
aI19
aI20
aI22
aI24
aa(lp266
I1
aI3
aI4
aI5
aI6
aI7
aI9
aI11
aI14
aI15
aI18
aI19
aI21
aI22
aI24
aa(lp267
I2
aI3
aI4
aI5
aI6
aI9
aI11
aI12
aI13
aI14
aI15
aI17
aI21
aI23
aI24
aa(lp268
I5
aI6
aI7
aI8
aI9
aI10
aI12
aI14
aI15
aI16
aI18
aI19
aI20
aI23
aI25
aa(lp269
I1
aI2
aI4
aI6
aI10
aI13
aI14
aI15
aI16
aI17
aI18
aI19
aI22
aI23
aI24
aa(lp270
I1
aI3
aI4
aI5
aI6
aI7
aI8
aI9
aI14
aI16
aI18
aI19
aI23
aI24
aI25
aa(lp271
I1
aI2
aI4
aI5
aI6
aI8
aI11
aI12
aI16
aI18
aI19
aI20
aI21
aI24
aI25
aa(lp272
I1
aI2
aI4
aI5
aI8
aI9
aI11
aI12
aI13
aI15
aI17
aI20
aI23
aI24
aI25
aa(lp273
I1
aI5
aI6
aI7
aI10
aI12
aI15
aI16
aI17
aI18
aI19
aI20
aI21
aI24
aI25
aa(lp274
I2
aI4
aI5
aI6
aI7
aI10
aI11
aI12
aI14
aI15
aI17
aI20
aI21
aI23
aI25
aa(lp275
I1
aI3
aI5
aI6
aI8
aI9
aI10
aI11
aI12
aI14
aI15
aI17
aI18
aI20
aI22
aa(lp276
I2
aI3
aI4
aI5
aI7
aI10
aI11
aI12
aI13
aI17
aI18
aI19
aI20
aI22
aI25
aa(lp277
I2
aI4
aI9
aI10
aI11
aI12
aI13
aI14
aI16
aI17
aI21
aI22
aI23
aI24
aI25
aa(lp278
I1
aI2
aI3
aI5
aI6
aI9
aI11
aI12
aI13
aI15
aI17
aI19
aI21
aI23
aI25
aa(lp279
I1
aI2
aI3
aI5
aI6
aI9
aI10
aI11
aI12
aI13
aI17
aI18
aI19
aI22
aI23
aa(lp280
I3
aI4
aI5
aI6
aI9
aI10
aI11
aI13
aI15
aI16
aI17
aI19
aI20
aI24
aI25
aa(lp281
I1
aI2
aI3
aI4
aI8
aI9
aI10
aI11
aI12
aI14
aI15
aI17
aI19
aI23
aI25
aa(lp282
I2
aI3
aI4
aI7
aI8
aI11
aI12
aI13
aI15
aI16
aI19
aI20
aI21
aI22
aI25
aa(lp283
I1
aI2
aI4
aI6
aI8
aI9
aI10
aI11
aI12
aI13
aI19
aI20
aI22
aI23
aI24
aa(lp284
I1
aI3
aI5
aI6
aI7
aI11
aI12
aI13
aI15
aI17
aI19
aI21
aI22
aI23
aI25
aa(lp285
I1
aI4
aI5
aI8
aI9
aI10
aI11
aI12
aI13
aI14
aI15
aI16
aI19
aI22
aI23
aa(lp286
I1
aI2
aI3
aI4
aI7
aI9
aI10
aI11
aI12
aI13
aI19
aI21
aI23
aI24
aI25
aa(lp287
I2
aI5
aI6
aI7
aI10
aI12
aI13
aI15
aI16
aI17
aI18
aI21
aI22
aI23
aI25
aa(lp288
I1
aI2
aI3
aI4
aI6
aI9
aI10
aI12
aI13
aI14
aI15
aI18
aI19
aI24
aI25
aa(lp289
I1
aI2
aI3
aI4
aI6
aI8
aI9
aI10
aI12
aI14
aI15
aI17
aI19
aI22
aI24
aa(lp290
I1
aI2
aI5
aI6
aI7
aI9
aI11
aI12
aI13
aI14
aI17
aI20
aI21
aI22
aI23
aa(lp291
I1
aI2
aI5
aI7
aI8
aI10
aI11
aI12
aI13
aI14
aI15
aI17
aI20
aI23
aI24
aa(lp292
I2
aI3
aI5
aI7
aI8
aI9
aI11
aI12
aI13
aI16
aI17
aI21
aI22
aI24
aI25
aa(lp293
I1
aI2
aI3
aI6
aI9
aI12
aI13
aI14
aI15
aI18
aI19
aI22
aI23
aI24
aI25
aa(lp294
I1
aI2
aI3
aI4
aI5
aI7
aI8
aI11
aI12
aI15
aI16
aI20
aI23
aI24
aI25
aa(lp295
I2
aI3
aI4
aI6
aI10
aI13
aI15
aI16
aI17
aI18
aI19
aI21
aI23
aI24
aI25
aa(lp296
I2
aI3
aI6
aI7
aI8
aI11
aI12
aI14
aI15
aI16
aI17
aI18
aI19
aI22
aI25
aa(lp297
I1
aI4
aI7
aI8
aI9
aI10
aI12
aI14
aI15
aI16
aI21
aI22
aI23
aI24
aI25
aa(lp298
I1
aI3
aI4
aI6
aI7
aI8
aI11
aI12
aI13
aI14
aI15
aI16
aI21
aI22
aI24
aa(lp299
I3
aI5
aI6
aI7
aI8
aI10
aI13
aI17
aI18
aI19
aI20
aI21
aI22
aI23
aI24
aa(lp300
I3
aI4
aI7
aI8
aI9
aI11
aI12
aI15
aI17
aI19
aI20
aI21
aI22
aI23
aI25
aa(lp301
I2
aI3
aI8
aI9
aI11
aI12
aI13
aI14
aI15
aI17
aI18
aI19
aI20
aI22
aI23
aa(lp302
I2
aI4
aI5
aI6
aI9
aI10
aI11
aI12
aI14
aI15
aI16
aI18
aI20
aI22
aI25
aa(lp303
I2
aI3
aI4
aI6
aI8
aI12
aI15
aI16
aI17
aI18
aI20
aI21
aI22
aI23
aI24
aa(lp304
I1
aI3
aI4
aI5
aI12
aI14
aI15
aI16
aI17
aI18
aI19
aI20
aI21
aI22
aI25
aa(lp305
I2
aI3
aI4
aI5
aI8
aI10
aI11
aI12
aI13
aI18
aI20
aI21
aI22
aI24
aI25
aa(lp306
I1
aI2
aI4
aI5
aI8
aI11
aI12
aI13
aI14
aI15
aI16
aI18
aI19
aI20
aI25
aa(lp307
I1
aI3
aI4
aI6
aI9
aI10
aI12
aI14
aI15
aI17
aI19
aI20
aI21
aI23
aI24
aa(lp308
I1
aI2
aI4
aI5
aI12
aI13
aI15
aI16
aI18
aI19
aI21
aI22
aI23
aI24
aI25
aa(lp309
I1
aI2
aI3
aI4
aI8
aI9
aI10
aI13
aI14
aI16
aI17
aI20
aI21
aI22
aI24
aa(lp310
I2
aI3
aI5
aI9
aI10
aI11
aI14
aI15
aI16
aI17
aI18
aI19
aI21
aI23
aI24
aa(lp311
I2
aI4
aI5
aI7
aI10
aI12
aI14
aI15
aI16
aI17
aI19
aI20
aI23
aI24
aI25
aa(lp312
I1
aI2
aI6
aI8
aI9
aI10
aI11
aI12
aI13
aI16
aI17
aI18
aI19
aI22
aI25
aa(lp313
I2
aI3
aI6
aI7
aI9
aI10
aI12
aI14
aI15
aI16
aI17
aI18
aI19
aI23
aI25
aa(lp314
I1
aI2
aI5
aI6
aI8
aI9
aI11
aI12
aI13
aI14
aI15
aI19
aI20
aI21
aI22
aa(lp315
I2
aI3
aI5
aI6
aI8
aI11
aI13
aI14
aI16
aI17
aI19
aI20
aI21
aI23
aI24
aa(lp316
I1
aI3
aI4
aI6
aI7
aI8
aI10
aI12
aI13
aI14
aI15
aI18
aI19
aI23
aI24
aa(lp317
I1
aI2
aI4
aI5
aI8
aI9
aI11
aI14
aI16
aI18
aI19
aI21
aI22
aI24
aI25
aa(lp318
I3
aI4
aI5
aI6
aI9
aI11
aI12
aI13
aI14
aI15
aI16
aI18
aI21
aI23
aI25
aa(lp319
I1
aI3
aI4
aI6
aI8
aI9
aI10
aI12
aI14
aI16
aI17
aI19
aI20
aI23
aI24
aa(lp320
I1
aI3
aI6
aI9
aI11
aI12
aI14
aI15
aI17
aI18
aI19
aI21
aI22
aI23
aI25
aa(lp321
I2
aI3
aI4
aI9
aI10
aI11
aI12
aI13
aI14
aI16
aI17
aI18
aI20
aI24
aI25
aa(lp322
I1
aI2
aI3
aI5
aI7
aI12
aI13
aI15
aI16
aI17
aI18
aI20
aI21
aI23
aI24
aa(lp323
I1
aI2
aI3
aI4
aI6
aI7
aI9
aI10
aI14
aI17
aI19
aI20
aI21
aI23
aI25
aa(lp324
I1
aI2
aI3
aI4
aI6
aI7
aI8
aI9
aI10
aI12
aI16
aI20
aI21
aI23
aI24
aa(lp325
I1
aI2
aI4
aI5
aI6
aI7
aI10
aI14
aI15
aI19
aI20
aI22
aI23
aI24
aI25
aa(lp326
I1
aI2
aI4
aI6
aI7
aI8
aI10
aI11
aI12
aI13
aI15
aI17
aI18
aI24
aI25
aa(lp327
I1
aI2
aI3
aI4
aI8
aI12
aI13
aI14
aI15
aI16
aI17
aI18
aI19
aI21
aI23
aa(lp328
I2
aI3
aI4
aI5
aI11
aI12
aI13
aI15
aI18
aI19
aI21
aI22
aI23
aI24
aI25
aa(lp329
I1
aI2
aI3
aI4
aI8
aI9
aI13
aI14
aI17
aI18
aI20
aI21
aI23
aI24
aI25
aa(lp330
I1
aI2
aI5
aI6
aI9
aI12
aI14
aI15
aI17
aI18
aI19
aI22
aI23
aI24
aI25
aa(lp331
I1
aI3
aI5
aI6
aI7
aI12
aI13
aI15
aI16
aI18
aI19
aI21
aI22
aI23
aI25
aa(lp332
I2
aI3
aI5
aI6
aI7
aI10
aI11
aI12
aI14
aI19
aI20
aI21
aI23
aI24
aI25
aa(lp333
I1
aI2
aI5
aI6
aI9
aI11
aI12
aI13
aI14
aI15
aI16
aI18
aI21
aI23
aI25
aa(lp334
I1
aI2
aI6
aI7
aI8
aI11
aI13
aI15
aI16
aI17
aI18
aI21
aI22
aI23
aI25
aa(lp335
I1
aI3
aI4
aI6
aI7
aI8
aI9
aI11
aI12
aI14
aI16
aI17
aI19
aI20
aI21
aa(lp336
I1
aI2
aI3
aI5
aI6
aI8
aI10
aI11
aI14
aI15
aI16
aI17
aI19
aI22
aI25
aa(lp337
I1
aI3
aI4
aI5
aI7
aI8
aI9
aI10
aI11
aI12
aI16
aI18
aI19
aI22
aI23
aa(lp338
I3
aI4
aI5
aI6
aI7
aI9
aI12
aI14
aI15
aI16
aI17
aI19
aI20
aI21
aI25
aa(lp339
I1
aI2
aI5
aI8
aI10
aI13
aI15
aI16
aI18
aI19
aI20
aI21
aI22
aI23
aI24
aa(lp340
I2
aI3
aI4
aI5
aI6
aI8
aI9
aI10
aI11
aI14
aI19
aI20
aI21
aI22
aI25
aa(lp341
I1
aI5
aI7
aI9
aI11
aI12
aI13
aI16
aI18
aI19
aI20
aI21
aI22
aI24
aI25
aa(lp342
I1
aI3
aI4
aI8
aI11
aI12
aI13
aI15
aI16
aI19
aI20
aI21
aI22
aI23
aI25
aa(lp343
I3
aI5
aI6
aI8
aI11
aI12
aI13
aI14
aI15
aI16
aI18
aI19
aI20
aI22
aI25
aa(lp344
I3
aI4
aI5
aI6
aI9
aI10
aI11
aI12
aI13
aI15
aI16
aI20
aI21
aI24
aI25
aa(lp345
I2
aI7
aI9
aI11
aI12
aI14
aI15
aI16
aI18
aI19
aI20
aI21
aI23
aI24
aI25
aa(lp346
I1
aI2
aI3
aI5
aI6
aI8
aI10
aI12
aI14
aI15
aI17
aI18
aI21
aI23
aI24
aa(lp347
I3
aI5
aI7
aI8
aI9
aI10
aI11
aI12
aI14
aI15
aI18
aI19
aI20
aI24
aI25
aa(lp348
I1
aI2
aI5
aI7
aI8
aI12
aI14
aI17
aI18
aI19
aI20
aI21
aI22
aI24
aI25
aa(lp349
I1
aI2
aI5
aI7
aI8
aI12
aI14
aI16
aI17
aI18
aI19
aI20
aI22
aI24
aI25
aa(lp350
I1
aI2
aI3
aI4
aI6
aI7
aI8
aI9
aI12
aI13
aI14
aI15
aI22
aI23
aI25
aa(lp351
I1
aI2
aI3
aI5
aI7
aI10
aI11
aI12
aI14
aI16
aI17
aI18
aI19
aI23
aI24
aa(lp352
I1
aI2
aI3
aI4
aI6
aI9
aI12
aI13
aI15
aI17
aI18
aI19
aI20
aI22
aI24
aa(lp353
I2
aI3
aI7
aI8
aI9
aI11
aI12
aI13
aI17
aI18
aI19
aI20
aI21
aI22
aI23
aa(lp354
I1
aI2
aI4
aI7
aI8
aI9
aI10
aI12
aI16
aI17
aI18
aI19
aI21
aI22
aI23
aa(lp355
I2
aI4
aI6
aI7
aI8
aI9
aI10
aI11
aI12
aI13
aI15
aI18
aI19
aI23
aI25
aa(lp356
I2
aI4
aI5
aI9
aI10
aI11
aI13
aI14
aI15
aI16
aI19
aI20
aI22
aI24
aI25
aa(lp357
I1
aI2
aI5
aI6
aI8
aI9
aI10
aI11
aI13
aI14
aI17
aI19
aI21
aI23
aI25
aa(lp358
I2
aI4
aI6
aI9
aI10
aI11
aI12
aI14
aI15
aI16
aI17
aI18
aI23
aI24
aI25
aa(lp359
I4
aI7
aI8
aI10
aI11
aI12
aI13
aI16
aI17
aI18
aI19
aI21
aI22
aI24
aI25
aa(lp360
I1
aI2
aI3
aI4
aI5
aI7
aI8
aI9
aI11
aI17
aI18
aI19
aI20
aI23
aI24
aa(lp361
I1
aI4
aI7
aI9
aI10
aI12
aI13
aI14
aI15
aI16
aI17
aI19
aI20
aI23
aI24
aa(lp362
I1
aI2
aI3
aI4
aI5
aI6
aI7
aI10
aI12
aI13
aI17
aI18
aI22
aI23
aI24
aa(lp363
I2
aI3
aI4
aI6
aI8
aI9
aI11
aI13
aI15
aI16
aI17
aI20
aI21
aI22
aI23
aa(lp364
I2
aI3
aI4
aI6
aI7
aI9
aI11
aI12
aI13
aI15
aI19
aI20
aI21
aI22
aI24
aa(lp365
I3
aI4
aI5
aI8
aI10
aI11
aI12
aI15
aI16
aI18
aI19
aI20
aI23
aI24
aI25
aa(lp366
I3
aI5
aI6
aI8
aI9
aI11
aI13
aI15
aI17
aI18
aI20
aI21
aI22
aI23
aI25
aa(lp367
I1
aI2
aI4
aI7
aI8
aI9
aI12
aI13
aI15
aI17
aI18
aI20
aI21
aI22
aI24
aa(lp368
I2
aI3
aI4
aI5
aI6
aI11
aI13
aI14
aI15
aI17
aI19
aI20
aI21
aI22
aI24
aa(lp369
I1
aI3
aI5
aI6
aI7
aI9
aI11
aI12
aI14
aI15
aI20
aI21
aI22
aI23
aI24
aa(lp370
I3
aI4
aI6
aI7
aI8
aI9
aI10
aI11
aI12
aI14
aI16
aI17
aI19
aI23
aI25
aa(lp371
I1
aI2
aI3
aI5
aI6
aI7
aI8
aI9
aI10
aI13
aI14
aI15
aI16
aI22
aI25
aa(lp372
I3
aI4
aI5
aI6
aI10
aI12
aI13
aI14
aI16
aI17
aI19
aI22
aI23
aI24
aI25
aa(lp373
I2
aI4
aI6
aI9
aI11
aI12
aI13
aI14
aI15
aI17
aI19
aI20
aI21
aI22
aI23
aa(lp374
I1
aI2
aI3
aI6
aI9
aI12
aI13
aI16
aI18
aI20
aI21
aI22
aI23
aI24
aI25
aa(lp375
I1
aI2
aI5
aI7
aI10
aI11
aI12
aI13
aI14
aI16
aI17
aI18
aI19
aI20
aI25
aa(lp376
I2
aI3
aI8
aI10
aI12
aI13
aI14
aI15
aI16
aI18
aI20
aI21
aI22
aI24
aI25
aa(lp377
I1
aI2
aI3
aI4
aI7
aI8
aI9
aI11
aI12
aI13
aI15
aI17
aI19
aI20
aI22
aa(lp378
I2
aI3
aI4
aI6
aI12
aI13
aI14
aI15
aI16
aI19
aI21
aI22
aI23
aI24
aI25
aa(lp379
I3
aI4
aI5
aI7
aI10
aI11
aI12
aI13
aI14
aI16
aI17
aI18
aI21
aI22
aI25
aa(lp380
I2
aI3
aI4
aI6
aI7
aI8
aI9
aI10
aI11
aI14
aI17
aI18
aI22
aI23
aI25
aa(lp381
I1
aI3
aI4
aI6
aI7
aI9
aI10
aI12
aI13
aI15
aI17
aI19
aI21
aI22
aI25
aa(lp382
I2
aI3
aI4
aI7
aI8
aI9
aI10
aI11
aI12
aI14
aI15
aI16
aI21
aI22
aI24
aa(lp383
I3
aI5
aI6
aI7
aI9
aI11
aI12
aI14
aI15
aI16
aI18
aI22
aI23
aI24
aI25
aa(lp384
I1
aI3
aI4
aI7
aI10
aI11
aI13
aI15
aI17
aI18
aI19
aI20
aI21
aI22
aI25
aa(lp385
I1
aI2
aI4
aI5
aI6
aI8
aI12
aI13
aI15
aI18
aI20
aI22
aI23
aI24
aI25
aa(lp386
I1
aI2
aI3
aI4
aI6
aI7
aI9
aI11
aI15
aI18
aI19
aI20
aI21
aI23
aI25
aa(lp387
I2
aI3
aI4
aI8
aI9
aI10
aI11
aI12
aI14
aI15
aI19
aI20
aI21
aI22
aI23
aa(lp388
I1
aI2
aI3
aI5
aI6
aI7
aI9
aI10
aI11
aI15
aI16
aI17
aI18
aI20
aI21
aa(lp389
I2
aI3
aI4
aI5
aI6
aI9
aI10
aI12
aI13
aI17
aI18
aI19
aI23
aI24
aI25
aa(lp390
I2
aI5
aI7
aI10
aI11
aI12
aI13
aI14
aI15
aI19
aI20
aI21
aI22
aI24
aI25
aa(lp391
I1
aI3
aI4
aI6
aI8
aI9
aI12
aI13
aI15
aI16
aI18
aI21
aI22
aI23
aI25
aa(lp392
I1
aI2
aI3
aI4
aI10
aI11
aI12
aI14
aI15
aI17
aI18
aI20
aI21
aI23
aI25
aa(lp393
I1
aI3
aI4
aI6
aI7
aI8
aI10
aI11
aI17
aI18
aI20
aI21
aI22
aI23
aI25
aa(lp394
I2
aI5
aI6
aI7
aI8
aI12
aI13
aI14
aI16
aI18
aI20
aI21
aI22
aI23
aI24
aa(lp395
I1
aI2
aI4
aI6
aI8
aI9
aI11
aI13
aI14
aI15
aI17
aI21
aI22
aI23
aI25
aa(lp396
I1
aI2
aI3
aI5
aI6
aI7
aI9
aI10
aI11
aI13
aI15
aI18
aI20
aI22
aI24
aa(lp397
I1
aI2
aI3
aI4
aI5
aI6
aI8
aI9
aI10
aI13
aI14
aI15
aI20
aI22
aI25
aa(lp398
I2
aI3
aI4
aI5
aI7
aI8
aI9
aI10
aI12
aI13
aI16
aI18
aI20
aI21
aI22
aa(lp399
I1
aI4
aI7
aI9
aI10
aI11
aI12
aI14
aI16
aI17
aI19
aI21
aI22
aI23
aI24
aa(lp400
I1
aI5
aI9
aI10
aI12
aI14
aI15
aI16
aI17
aI19
aI20
aI21
aI22
aI23
aI24
aa(lp401
I1
aI2
aI3
aI5
aI6
aI7
aI8
aI10
aI14
aI16
aI17
aI21
aI23
aI24
aI25
aa(lp402
I1
aI2
aI4
aI6
aI7
aI8
aI9
aI11
aI16
aI20
aI21
aI22
aI23
aI24
aI25
aa(lp403
I2
aI4
aI6
aI7
aI8
aI9
aI11
aI12
aI13
aI14
aI15
aI19
aI21
aI24
aI25
aa(lp404
I1
aI5
aI6
aI8
aI10
aI11
aI13
aI14
aI16
aI18
aI20
aI21
aI22
aI24
aI25
aa(lp405
I4
aI5
aI6
aI7
aI8
aI11
aI12
aI13
aI14
aI16
aI18
aI19
aI22
aI24
aI25
aa(lp406
I1
aI2
aI4
aI5
aI7
aI8
aI9
aI10
aI11
aI16
aI17
aI21
aI22
aI23
aI24
aa(lp407
I2
aI4
aI6
aI7
aI8
aI9
aI11
aI12
aI14
aI15
aI16
aI17
aI20
aI22
aI25
aa(lp408
I1
aI2
aI3
aI4
aI10
aI11
aI12
aI14
aI15
aI18
aI19
aI20
aI21
aI22
aI23
aa(lp409
I1
aI2
aI4
aI6
aI7
aI8
aI10
aI14
aI16
aI17
aI20
aI21
aI23
aI24
aI25
aa(lp410
I1
aI4
aI5
aI7
aI8
aI9
aI10
aI11
aI13
aI14
aI15
aI17
aI18
aI19
aI25
aa(lp411
I1
aI5
aI7
aI9
aI11
aI12
aI14
aI16
aI17
aI18
aI20
aI21
aI22
aI24
aI25
aa(lp412
I3
aI4
aI8
aI9
aI10
aI11
aI12
aI16
aI17
aI18
aI19
aI20
aI21
aI22
aI25
aa(lp413
I2
aI3
aI5
aI6
aI8
aI9
aI10
aI12
aI13
aI14
aI16
aI17
aI20
aI21
aI25
aa(lp414
I2
aI3
aI5
aI6
aI8
aI9
aI10
aI11
aI15
aI16
aI18
aI19
aI20
aI21
aI25
aa(lp415
I1
aI3
aI7
aI10
aI11
aI13
aI14
aI15
aI17
aI18
aI19
aI20
aI21
aI22
aI23
aa(lp416
I1
aI2
aI5
aI6
aI7
aI13
aI15
aI16
aI18
aI19
aI20
aI22
aI23
aI24
aI25
aa(lp417
I1
aI2
aI3
aI8
aI9
aI11
aI12
aI13
aI14
aI15
aI16
aI17
aI19
aI21
aI23
aa(lp418
I5
aI8
aI9
aI10
aI11
aI12
aI13
aI14
aI18
aI19
aI20
aI22
aI23
aI24
aI25
aa(lp419
I3
aI4
aI5
aI6
aI7
aI14
aI15
aI16
aI17
aI18
aI20
aI21
aI22
aI23
aI24
aa(lp420
I3
aI4
aI5
aI6
aI7
aI8
aI9
aI10
aI11
aI12
aI18
aI19
aI22
aI24
aI25
aa(lp421
I3
aI4
aI5
aI8
aI9
aI10
aI12
aI13
aI14
aI15
aI16
aI19
aI20
aI23
aI25
aa(lp422
I1
aI2
aI3
aI4
aI6
aI7
aI8
aI12
aI13
aI14
aI17
aI18
aI22
aI23
aI25
aa(lp423
I1
aI2
aI3
aI5
aI11
aI13
aI15
aI16
aI17
aI18
aI20
aI22
aI23
aI24
aI25
aa(lp424
I1
aI3
aI6
aI9
aI10
aI11
aI13
aI14
aI15
aI16
aI17
aI18
aI19
aI24
aI25
aa(lp425
I1
aI7
aI9
aI10
aI11
aI12
aI13
aI15
aI16
aI18
aI19
aI20
aI22
aI23
aI24
aa(lp426
I2
aI3
aI4
aI5
aI6
aI8
aI10
aI11
aI15
aI16
aI18
aI19
aI22
aI24
aI25
aa(lp427
I1
aI3
aI4
aI5
aI6
aI7
aI9
aI10
aI11
aI12
aI16
aI19
aI21
aI22
aI24
aa(lp428
I1
aI3
aI4
aI11
aI13
aI14
aI15
aI17
aI18
aI19
aI20
aI21
aI22
aI23
aI24
aa(lp429
I2
aI3
aI4
aI5
aI6
aI7
aI8
aI12
aI13
aI14
aI16
aI17
aI19
aI23
aI25
aa(lp430
I2
aI3
aI4
aI5
aI6
aI7
aI9
aI11
aI13
aI14
aI15
aI20
aI22
aI23
aI25
aa(lp431
I1
aI2
aI3
aI5
aI9
aI11
aI12
aI13
aI15
aI18
aI20
aI21
aI22
aI23
aI24
aa(lp432
I2
aI3
aI4
aI6
aI7
aI10
aI12
aI13
aI15
aI17
aI19
aI20
aI21
aI23
aI24
aa(lp433
I1
aI2
aI3
aI5
aI7
aI8
aI9
aI14
aI15
aI19
aI21
aI22
aI23
aI24
aI25
aa(lp434
I3
aI4
aI6
aI9
aI11
aI12
aI13
aI15
aI16
aI17
aI18
aI21
aI23
aI24
aI25
aa(lp435
I1
aI3
aI4
aI5
aI10
aI11
aI13
aI14
aI15
aI16
aI17
aI18
aI21
aI24
aI25
aa(lp436
I3
aI4
aI6
aI7
aI10
aI13
aI14
aI15
aI18
aI19
aI20
aI21
aI22
aI23
aI25
aa(lp437
I1
aI2
aI4
aI5
aI6
aI8
aI10
aI11
aI12
aI16
aI17
aI19
aI20
aI21
aI23
aa(lp438
I1
aI4
aI7
aI8
aI9
aI11
aI13
aI15
aI17
aI18
aI21
aI22
aI23
aI24
aI25
aa(lp439
I2
aI3
aI5
aI9
aI10
aI11
aI12
aI14
aI15
aI17
aI19
aI21
aI23
aI24
aI25
aa(lp440
I1
aI3
aI5
aI8
aI9
aI12
aI13
aI14
aI15
aI16
aI19
aI21
aI22
aI24
aI25
aa(lp441
I1
aI2
aI3
aI4
aI7
aI8
aI9
aI10
aI11
aI13
aI14
aI20
aI23
aI24
aI25
aa(lp442
I5
aI6
aI7
aI8
aI9
aI12
aI13
aI14
aI15
aI17
aI18
aI22
aI23
aI24
aI25
aa(lp443
I1
aI2
aI3
aI5
aI7
aI10
aI11
aI12
aI16
aI17
aI18
aI19
aI21
aI22
aI23
aa(lp444
I1
aI2
aI3
aI6
aI7
aI10
aI14
aI15
aI18
aI19
aI20
aI21
aI22
aI24
aI25
aa(lp445
I1
aI2
aI4
aI7
aI9
aI10
aI11
aI12
aI13
aI15
aI16
aI18
aI19
aI20
aI21
aa(lp446
I1
aI2
aI4
aI5
aI6
aI8
aI10
aI11
aI14
aI15
aI16
aI19
aI21
aI23
aI24
aa(lp447
I1
aI2
aI5
aI8
aI10
aI12
aI16
aI17
aI18
aI19
aI20
aI21
aI22
aI24
aI25
aa(lp448
I1
aI3
aI5
aI6
aI9
aI10
aI11
aI12
aI13
aI14
aI15
aI17
aI20
aI23
aI24
aa(lp449
I1
aI2
aI3
aI4
aI8
aI9
aI10
aI11
aI16
aI17
aI18
aI19
aI22
aI24
aI25
aa(lp450
I4
aI5
aI6
aI7
aI9
aI11
aI14
aI16
aI17
aI18
aI21
aI22
aI23
aI24
aI25
aa(lp451
I1
aI3
aI5
aI6
aI8
aI9
aI14
aI15
aI17
aI18
aI19
aI22
aI23
aI24
aI25
aa(lp452
I1
aI6
aI7
aI8
aI9
aI10
aI11
aI12
aI14
aI17
aI18
aI19
aI20
aI24
aI25
aa(lp453
I1
aI2
aI3
aI4
aI6
aI9
aI11
aI14
aI15
aI17
aI19
aI20
aI21
aI24
aI25
aa(lp454
I3
aI4
aI6
aI7
aI11
aI12
aI13
aI14
aI15
aI17
aI19
aI20
aI22
aI24
aI25
aa(lp455
I1
aI3
aI4
aI5
aI6
aI7
aI8
aI11
aI12
aI14
aI18
aI19
aI21
aI23
aI25
aa(lp456
I1
aI3
aI4
aI9
aI10
aI11
aI12
aI13
aI14
aI17
aI18
aI21
aI23
aI24
aI25
aa(lp457
I1
aI4
aI5
aI11
aI13
aI14
aI15
aI16
aI18
aI19
aI20
aI21
aI22
aI23
aI25
aa(lp458
I2
aI3
aI4
aI5
aI6
aI7
aI8
aI9
aI11
aI13
aI15
aI16
aI18
aI20
aI22
aa(lp459
I1
aI2
aI3
aI4
aI7
aI10
aI11
aI12
aI14
aI15
aI17
aI19
aI20
aI21
aI23
aa(lp460
I1
aI3
aI4
aI6
aI9
aI10
aI11
aI12
aI14
aI15
aI16
aI17
aI19
aI22
aI23
aa(lp461
I3
aI4
aI5
aI6
aI7
aI8
aI11
aI12
aI13
aI14
aI15
aI17
aI19
aI23
aI24
aa(lp462
I1
aI2
aI3
aI5
aI7
aI8
aI12
aI14
aI16
aI17
aI18
aI21
aI22
aI23
aI24
aa(lp463
I2
aI3
aI6
aI7
aI9
aI11
aI13
aI14
aI17
aI18
aI19
aI20
aI22
aI23
aI25
aa(lp464
I1
aI2
aI5
aI8
aI10
aI11
aI16
aI17
aI19
aI20
aI21
aI22
aI23
aI24
aI25
aa(lp465
I1
aI2
aI3
aI4
aI6
aI7
aI9
aI10
aI11
aI13
aI18
aI19
aI21
aI22
aI25
aa(lp466
I2
aI6
aI7
aI8
aI10
aI11
aI12
aI14
aI17
aI18
aI19
aI20
aI21
aI22
aI25
aa(lp467
I2
aI4
aI5
aI6
aI7
aI10
aI13
aI14
aI15
aI17
aI18
aI21
aI22
aI24
aI25
aa(lp468
I2
aI3
aI5
aI6
aI9
aI10
aI12
aI13
aI15
aI17
aI18
aI21
aI22
aI24
aI25
aa(lp469
I1
aI2
aI5
aI6
aI7
aI8
aI10
aI11
aI13
aI14
aI18
aI19
aI22
aI23
aI25
aa(lp470
I1
aI3
aI4
aI5
aI6
aI7
aI8
aI10
aI11
aI13
aI15
aI18
aI20
aI22
aI23
aa(lp471
I2
aI3
aI4
aI6
aI9
aI10
aI11
aI12
aI13
aI14
aI15
aI16
aI20
aI24
aI25
aa(lp472
I1
aI2
aI4
aI5
aI6
aI7
aI8
aI11
aI12
aI13
aI14
aI15
aI17
aI18
aI20
aa(lp473
I1
aI2
aI5
aI6
aI7
aI8
aI9
aI11
aI12
aI15
aI17
aI19
aI22
aI23
aI25
aa(lp474
I1
aI2
aI3
aI5
aI9
aI10
aI11
aI12
aI15
aI16
aI17
aI18
aI21
aI23
aI24
aa(lp475
I2
aI3
aI4
aI5
aI6
aI9
aI10
aI11
aI13
aI14
aI17
aI20
aI21
aI23
aI25
aa(lp476
I1
aI5
aI6
aI7
aI9
aI10
aI11
aI13
aI14
aI15
aI16
aI17
aI19
aI24
aI25
aa(lp477
I2
aI4
aI6
aI7
aI8
aI10
aI11
aI12
aI14
aI16
aI18
aI20
aI23
aI24
aI25
aa(lp478
I2
aI3
aI5
aI7
aI9
aI10
aI11
aI12
aI13
aI16
aI18
aI22
aI23
aI24
aI25
aa(lp479
I2
aI3
aI5
aI8
aI11
aI13
aI14
aI15
aI16
aI18
aI19
aI22
aI23
aI24
aI25
aa(lp480
I4
aI5
aI6
aI7
aI8
aI9
aI11
aI12
aI15
aI17
aI18
aI19
aI22
aI24
aI25
aa(lp481
I1
aI3
aI5
aI7
aI9
aI10
aI12
aI13
aI14
aI15
aI17
aI20
aI21
aI22
aI24
aa(lp482
I2
aI6
aI7
aI8
aI9
aI10
aI12
aI15
aI16
aI17
aI19
aI21
aI22
aI23
aI25
aa(lp483
I1
aI4
aI5
aI6
aI7
aI9
aI11
aI12
aI14
aI17
aI18
aI21
aI22
aI23
aI24
aa(lp484
I1
aI4
aI6
aI8
aI9
aI10
aI11
aI13
aI14
aI16
aI17
aI20
aI21
aI23
aI25
aa(lp485
I2
aI3
aI4
aI5
aI6
aI7
aI11
aI16
aI17
aI18
aI20
aI21
aI22
aI24
aI25
aa(lp486
I1
aI2
aI3
aI4
aI5
aI7
aI9
aI11
aI13
aI15
aI18
aI19
aI20
aI21
aI22
aa(lp487
I4
aI5
aI6
aI7
aI8
aI9
aI10
aI14
aI15
aI17
aI18
aI19
aI21
aI22
aI24
aa(lp488
I5
aI6
aI7
aI8
aI11
aI12
aI13
aI14
aI15
aI17
aI18
aI20
aI22
aI24
aI25
aa(lp489
I1
aI2
aI5
aI7
aI10
aI11
aI12
aI14
aI17
aI18
aI19
aI21
aI22
aI23
aI25
aa(lp490
I3
aI5
aI6
aI8
aI10
aI11
aI12
aI13
aI14
aI16
aI17
aI18
aI21
aI22
aI23
aa(lp491
I1
aI2
aI3
aI7
aI9
aI11
aI12
aI13
aI16
aI20
aI21
aI22
aI23
aI24
aI25
aa(lp492
I1
aI2
aI3
aI4
aI6
aI8
aI11
aI12
aI14
aI15
aI18
aI19
aI21
aI24
aI25
aa(lp493
I1
aI4
aI5
aI7
aI8
aI10
aI12
aI13
aI14
aI15
aI17
aI18
aI21
aI22
aI25
aa(lp494
I2
aI3
aI4
aI5
aI7
aI8
aI12
aI13
aI15
aI16
aI18
aI19
aI20
aI21
aI22
aa(lp495
I1
aI3
aI4
aI6
aI7
aI8
aI9
aI11
aI13
aI15
aI17
aI19
aI22
aI24
aI25
aa(lp496
I3
aI4
aI5
aI7
aI9
aI11
aI13
aI14
aI15
aI16
aI17
aI19
aI21
aI22
aI24
aa(lp497
I1
aI2
aI3
aI4
aI5
aI8
aI9
aI11
aI12
aI14
aI16
aI17
aI19
aI23
aI25
aa(lp498
I1
aI2
aI4
aI5
aI6
aI11
aI13
aI14
aI15
aI16
aI18
aI20
aI22
aI23
aI25
aa(lp499
I1
aI2
aI3
aI4
aI7
aI10
aI11
aI12
aI15
aI17
aI19
aI20
aI21
aI24
aI25
aa(lp500
I2
aI3
aI5
aI6
aI8
aI9
aI10
aI13
aI14
aI16
aI18
aI20
aI21
aI23
aI25
aa(lp501
I1
aI2
aI3
aI4
aI6
aI9
aI12
aI15
aI17
aI18
aI19
aI21
aI23
aI24
aI25
aa(lp502
I1
aI2
aI3
aI4
aI5
aI6
aI8
aI10
aI11
aI13
aI16
aI18
aI19
aI23
aI24
aa(lp503
I1
aI2
aI3
aI4
aI5
aI7
aI11
aI12
aI14
aI15
aI17
aI20
aI21
aI24
aI25
aa(lp504
I1
aI6
aI9
aI10
aI12
aI13
aI14
aI15
aI16
aI17
aI18
aI19
aI20
aI21
aI23
aa(lp505
I3
aI4
aI6
aI7
aI9
aI11
aI15
aI16
aI17
aI18
aI19
aI20
aI21
aI22
aI25
aa(lp506
I4
aI5
aI6
aI9
aI11
aI12
aI13
aI15
aI16
aI17
aI19
aI20
aI21
aI22
aI24
aa(lp507
I1
aI2
aI3
aI5
aI6
aI8
aI9
aI10
aI11
aI12
aI20
aI21
aI23
aI24
aI25
aa(lp508
I2
aI3
aI5
aI6
aI7
aI8
aI9
aI14
aI15
aI16
aI18
aI19
aI23
aI24
aI25
aa(lp509
I1
aI3
aI5
aI6
aI9
aI11
aI12
aI15
aI16
aI17
aI19
aI20
aI22
aI24
aI25
aa(lp510
I1
aI2
aI3
aI4
aI6
aI7
aI10
aI11
aI12
aI13
aI20
aI21
aI22
aI23
aI25
aa(lp511
I1
aI2
aI5
aI7
aI10
aI11
aI12
aI13
aI14
aI17
aI18
aI19
aI21
aI24
aI25
aa(lp512
I1
aI2
aI4
aI5
aI6
aI7
aI8
aI9
aI10
aI12
aI13
aI15
aI16
aI21
aI24
aa(lp513
I1
aI2
aI3
aI6
aI9
aI10
aI11
aI13
aI15
aI17
aI18
aI20
aI22
aI23
aI25
aa(lp514
I1
aI5
aI6
aI7
aI8
aI9
aI11
aI12
aI15
aI17
aI18
aI21
aI22
aI24
aI25
aa(lp515
I2
aI3
aI5
aI7
aI9
aI10
aI11
aI12
aI13
aI14
aI17
aI18
aI20
aI24
aI25
aa(lp516
I2
aI4
aI5
aI6
aI7
aI8
aI11
aI12
aI13
aI14
aI18
aI20
aI21
aI23
aI24
aa(lp517
I1
aI3
aI4
aI5
aI6
aI7
aI8
aI9
aI11
aI12
aI13
aI17
aI21
aI22
aI23
aa(lp518
I4
aI5
aI6
aI7
aI10
aI11
aI12
aI13
aI14
aI16
aI17
aI19
aI20
aI22
aI24
aa(lp519
I2
aI3
aI7
aI9
aI11
aI12
aI13
aI15
aI16
aI17
aI19
aI21
aI23
aI24
aI25
aa(lp520
I2
aI4
aI5
aI6
aI9
aI10
aI12
aI14
aI15
aI18
aI19
aI20
aI22
aI23
aI24
aa(lp521
I1
aI2
aI3
aI4
aI5
aI6
aI9
aI10
aI11
aI12
aI13
aI17
aI19
aI20
aI23
aa(lp522
I2
aI4
aI6
aI7
aI9
aI11
aI16
aI17
aI18
aI19
aI21
aI22
aI23
aI24
aI25
aa(lp523
I2
aI4
aI5
aI8
aI9
aI10
aI11
aI12
aI13
aI16
aI17
aI18
aI19
aI24
aI25
aa(lp524
I2
aI3
aI5
aI6
aI7
aI10
aI11
aI12
aI14
aI17
aI20
aI21
aI22
aI23
aI24
aa(lp525
I3
aI4
aI6
aI9
aI10
aI11
aI13
aI15
aI16
aI17
aI18
aI20
aI21
aI22
aI25
aa(lp526
I1
aI2
aI4
aI7
aI8
aI9
aI10
aI11
aI12
aI14
aI15
aI16
aI19
aI24
aI25
aa(lp527
I1
aI2
aI5
aI6
aI9
aI11
aI12
aI14
aI15
aI16
aI17
aI19
aI22
aI23
aI24
aa(lp528
I2
aI3
aI4
aI6
aI7
aI8
aI10
aI11
aI12
aI15
aI19
aI21
aI23
aI24
aI25
aa(lp529
I2
aI3
aI5
aI6
aI7
aI11
aI12
aI16
aI17
aI18
aI19
aI20
aI22
aI23
aI25
aa(lp530
I3
aI4
aI6
aI7
aI8
aI9
aI10
aI11
aI12
aI14
aI16
aI18
aI21
aI22
aI23
aa(lp531
I1
aI2
aI3
aI7
aI10
aI12
aI13
aI14
aI15
aI16
aI17
aI21
aI22
aI23
aI25
aa(lp532
I1
aI2
aI4
aI5
aI6
aI7
aI9
aI11
aI12
aI13
aI15
aI16
aI19
aI22
aI24
aa(lp533
I1
aI2
aI3
aI8
aI9
aI10
aI11
aI13
aI14
aI16
aI17
aI18
aI20
aI24
aI25
aa(lp534
I1
aI2
aI3
aI5
aI7
aI8
aI11
aI12
aI13
aI15
aI18
aI19
aI21
aI22
aI24
aa(lp535
I1
aI4
aI5
aI6
aI9
aI11
aI13
aI15
aI16
aI17
aI19
aI21
aI23
aI24
aI25
aa(lp536
I3
aI4
aI5
aI7
aI9
aI11
aI15
aI16
aI17
aI19
aI20
aI22
aI23
aI24
aI25
aa(lp537
I1
aI2
aI4
aI6
aI9
aI10
aI11
aI14
aI15
aI17
aI18
aI20
aI22
aI23
aI24
aa(lp538
I2
aI5
aI6
aI10
aI11
aI12
aI13
aI16
aI17
aI18
aI19
aI20
aI21
aI24
aI25
aa(lp539
I1
aI2
aI4
aI5
aI6
aI8
aI9
aI12
aI13
aI14
aI15
aI16
aI19
aI21
aI23
aa(lp540
I2
aI6
aI7
aI8
aI9
aI11
aI12
aI13
aI15
aI16
aI18
aI19
aI20
aI22
aI24
aa(lp541
I3
aI4
aI5
aI6
aI9
aI10
aI13
aI14
aI15
aI17
aI19
aI20
aI22
aI24
aI25
aa(lp542
I1
aI2
aI3
aI4
aI5
aI8
aI9
aI10
aI13
aI16
aI17
aI18
aI20
aI22
aI24
aa(lp543
I1
aI5
aI7
aI8
aI10
aI11
aI13
aI14
aI15
aI16
aI17
aI20
aI22
aI24
aI25
aa(lp544
I2
aI4
aI5
aI7
aI8
aI9
aI11
aI13
aI14
aI15
aI18
aI19
aI21
aI23
aI24
aa(lp545
I1
aI3
aI5
aI6
aI7
aI11
aI12
aI13
aI14
aI15
aI17
aI18
aI23
aI24
aI25
aa(lp546
I2
aI3
aI4
aI5
aI8
aI9
aI10
aI11
aI12
aI13
aI17
aI18
aI19
aI21
aI23
aa(lp547
I1
aI2
aI4
aI5
aI6
aI9
aI10
aI12
aI14
aI16
aI17
aI19
aI20
aI24
aI25
aa(lp548
I1
aI2
aI3
aI4
aI5
aI6
aI7
aI8
aI9
aI13
aI14
aI17
aI20
aI23
aI25
aa(lp549
I3
aI4
aI7
aI9
aI10
aI11
aI13
aI14
aI15
aI16
aI17
aI20
aI21
aI22
aI23
aa(lp550
I1
aI5
aI6
aI7
aI9
aI10
aI11
aI13
aI14
aI16
aI17
aI18
aI20
aI21
aI22
aa(lp551
I3
aI7
aI8
aI10
aI12
aI13
aI14
aI16
aI17
aI18
aI19
aI20
aI21
aI22
aI24
aa(lp552
I1
aI3
aI4
aI5
aI6
aI8
aI10
aI12
aI13
aI17
aI20
aI22
aI23
aI24
aI25
aa(lp553
I4
aI5
aI7
aI8
aI9
aI10
aI12
aI13
aI14
aI15
aI17
aI18
aI21
aI23
aI24
aa(lp554
I1
aI2
aI3
aI4
aI6
aI9
aI13
aI14
aI17
aI19
aI20
aI21
aI22
aI24
aI25
aa(lp555
I1
aI2
aI6
aI7
aI8
aI9
aI10
aI12
aI14
aI16
aI17
aI18
aI20
aI23
aI24
aa(lp556
I1
aI4
aI8
aI9
aI11
aI13
aI14
aI16
aI17
aI18
aI20
aI22
aI23
aI24
aI25
aa(lp557
I1
aI5
aI7
aI8
aI9
aI10
aI12
aI14
aI15
aI17
aI18
aI19
aI20
aI21
aI23
aa(lp558
I1
aI3
aI4
aI5
aI7
aI10
aI12
aI14
aI17
aI18
aI20
aI21
aI22
aI24
aI25
aa(lp559
I1
aI2
aI5
aI7
aI9
aI10
aI11
aI13
aI14
aI16
aI19
aI20
aI21
aI22
aI23
aa(lp560
I1
aI2
aI4
aI9
aI10
aI12
aI14
aI17
aI18
aI19
aI20
aI21
aI23
aI24
aI25
aa(lp561
I2
aI3
aI4
aI6
aI7
aI9
aI10
aI11
aI12
aI13
aI15
aI17
aI18
aI20
aI21
aa(lp562
I1
aI2
aI3
aI5
aI7
aI8
aI13
aI14
aI16
aI18
aI19
aI20
aI21
aI22
aI24
aa(lp563
I1
aI3
aI4
aI5
aI6
aI7
aI9
aI11
aI12
aI16
aI19
aI20
aI22
aI23
aI24
aa(lp564
I1
aI2
aI3
aI4
aI7
aI9
aI12
aI14
aI15
aI17
aI19
aI20
aI21
aI23
aI24
aa(lp565
I1
aI4
aI6
aI7
aI9
aI10
aI12
aI15
aI17
aI18
aI19
aI20
aI21
aI23
aI24
aa(lp566
I1
aI3
aI4
aI5
aI7
aI9
aI10
aI11
aI14
aI15
aI16
aI17
aI19
aI20
aI21
aa(lp567
I1
aI2
aI5
aI7
aI8
aI9
aI10
aI12
aI13
aI14
aI15
aI17
aI21
aI24
aI25
aa(lp568
I1
aI2
aI4
aI5
aI6
aI7
aI8
aI9
aI13
aI15
aI16
aI17
aI18
aI20
aI21
aa(lp569
I1
aI2
aI6
aI7
aI8
aI12
aI13
aI16
aI17
aI18
aI19
aI20
aI22
aI24
aI25
aa(lp570
I1
aI2
aI3
aI4
aI5
aI10
aI12
aI14
aI15
aI18
aI19
aI20
aI21
aI22
aI23
aa(lp571
I3
aI4
aI5
aI6
aI7
aI11
aI12
aI15
aI16
aI18
aI19
aI20
aI21
aI24
aI25
aa(lp572
I2
aI5
aI6
aI8
aI9
aI10
aI13
aI14
aI15
aI16
aI17
aI19
aI21
aI22
aI24
aa(lp573
I1
aI2
aI3
aI7
aI10
aI11
aI12
aI14
aI16
aI18
aI20
aI22
aI23
aI24
aI25
aa(lp574
I1
aI5
aI6
aI11
aI12
aI13
aI14
aI16
aI18
aI19
aI20
aI21
aI22
aI23
aI25
aa(lp575
I3
aI5
aI8
aI9
aI10
aI12
aI13
aI15
aI16
aI17
aI18
aI19
aI21
aI22
aI24
aa(lp576
I6
aI8
aI9
aI10
aI11
aI12
aI13
aI15
aI16
aI17
aI18
aI19
aI21
aI23
aI25
aa(lp577
I1
aI2
aI3
aI4
aI5
aI8
aI10
aI12
aI15
aI16
aI18
aI19
aI21
aI22
aI23
aa(lp578
I1
aI4
aI6
aI7
aI8
aI10
aI12
aI13
aI14
aI15
aI16
aI19
aI21
aI22
aI23
aa(lp579
I1
aI3
aI5
aI6
aI7
aI8
aI10
aI12
aI13
aI14
aI17
aI19
aI20
aI21
aI24
aa(lp580
I1
aI4
aI6
aI7
aI8
aI9
aI10
aI12
aI13
aI14
aI16
aI17
aI21
aI24
aI25
aa(lp581
I2
aI4
aI6
aI9
aI11
aI12
aI13
aI14
aI15
aI17
aI18
aI19
aI21
aI23
aI25
aa(lp582
I3
aI7
aI8
aI9
aI10
aI11
aI12
aI13
aI15
aI17
aI18
aI19
aI21
aI23
aI25
aa(lp583
I1
aI3
aI4
aI7
aI8
aI9
aI11
aI14
aI16
aI17
aI18
aI19
aI21
aI23
aI24
aa(lp584
I2
aI3
aI5
aI6
aI7
aI8
aI10
aI11
aI14
aI15
aI19
aI20
aI21
aI22
aI23
aa(lp585
I1
aI5
aI7
aI8
aI9
aI10
aI13
aI14
aI15
aI16
aI17
aI18
aI20
aI23
aI24
aa(lp586
I2
aI3
aI4
aI6
aI7
aI8
aI11
aI12
aI16
aI17
aI18
aI19
aI22
aI24
aI25
aa(lp587
I1
aI4
aI5
aI7
aI9
aI10
aI11
aI12
aI13
aI17
aI18
aI19
aI20
aI21
aI23
aa(lp588
I1
aI4
aI5
aI7
aI11
aI12
aI13
aI14
aI17
aI18
aI19
aI20
aI23
aI24
aI25
aa(lp589
I2
aI3
aI4
aI6
aI8
aI9
aI10
aI12
aI13
aI20
aI21
aI22
aI23
aI24
aI25
aa(lp590
I1
aI3
aI4
aI6
aI9
aI10
aI11
aI13
aI14
aI15
aI16
aI18
aI19
aI20
aI21
aa(lp591
I1
aI2
aI4
aI7
aI8
aI10
aI11
aI14
aI15
aI16
aI17
aI19
aI20
aI21
aI23
aa(lp592
I1
aI3
aI5
aI6
aI8
aI9
aI10
aI14
aI15
aI16
aI17
aI18
aI19
aI20
aI22
aa(lp593
I1
aI3
aI4
aI5
aI6
aI9
aI10
aI11
aI13
aI14
aI15
aI20
aI23
aI24
aI25
aa(lp594
I2
aI3
aI5
aI7
aI9
aI10
aI11
aI13
aI14
aI15
aI16
aI18
aI20
aI23
aI25
aa(lp595
I1
aI5
aI6
aI7
aI8
aI9
aI10
aI11
aI12
aI15
aI17
aI19
aI21
aI24
aI25
aa(lp596
I2
aI3
aI7
aI8
aI9
aI10
aI11
aI12
aI17
aI18
aI19
aI20
aI22
aI23
aI25
aa(lp597
I1
aI2
aI3
aI5
aI8
aI9
aI10
aI11
aI14
aI16
aI17
aI18
aI22
aI24
aI25
aa(lp598
I1
aI3
aI4
aI5
aI7
aI11
aI12
aI14
aI15
aI18
aI19
aI20
aI21
aI22
aI25
aa(lp599
I2
aI4
aI5
aI6
aI7
aI9
aI12
aI13
aI16
aI18
aI20
aI21
aI22
aI23
aI24
aa(lp600
I1
aI3
aI5
aI6
aI8
aI9
aI10
aI11
aI16
aI17
aI18
aI19
aI22
aI23
aI25
aa(lp601
I1
aI3
aI5
aI6
aI7
aI9
aI10
aI11
aI12
aI13
aI14
aI16
aI19
aI20
aI25
aa(lp602
I1
aI2
aI5
aI6
aI7
aI8
aI9
aI10
aI11
aI12
aI13
aI18
aI22
aI23
aI25
aa(lp603
I2
aI4
aI5
aI6
aI8
aI10
aI12
aI13
aI15
aI16
aI19
aI20
aI21
aI22
aI23
aa(lp604
I1
aI2
aI5
aI7
aI9
aI12
aI13
aI14
aI15
aI18
aI19
aI20
aI22
aI24
aI25
aa(lp605
I2
aI3
aI4
aI5
aI7
aI10
aI11
aI13
aI14
aI16
aI17
aI18
aI21
aI23
aI25
aa(lp606
I2
aI3
aI6
aI7
aI8
aI10
aI12
aI14
aI15
aI16
aI18
aI22
aI23
aI24
aI25
aa(lp607
I3
aI5
aI7
aI9
aI12
aI15
aI16
aI17
aI18
aI19
aI20
aI21
aI22
aI24
aI25
aa(lp608
I1
aI2
aI3
aI5
aI7
aI8
aI10
aI13
aI14
aI16
aI17
aI18
aI19
aI23
aI25
aa(lp609
I1
aI2
aI4
aI7
aI9
aI10
aI11
aI12
aI14
aI15
aI16
aI19
aI20
aI23
aI25
aa(lp610
I1
aI2
aI4
aI6
aI7
aI8
aI10
aI12
aI13
aI14
aI15
aI16
aI21
aI22
aI25
aa(lp611
I2
aI3
aI4
aI5
aI6
aI8
aI9
aI13
aI14
aI16
aI18
aI19
aI20
aI21
aI23
aa(lp612
I1
aI2
aI3
aI6
aI7
aI9
aI10
aI13
aI15
aI16
aI17
aI18
aI19
aI23
aI25
aa(lp613
I2
aI5
aI6
aI7
aI10
aI11
aI12
aI13
aI14
aI16
aI17
aI20
aI22
aI23
aI25
aa(lp614
I1
aI5
aI6
aI7
aI9
aI11
aI12
aI13
aI16
aI17
aI18
aI19
aI20
aI22
aI23
aa(lp615
I1
aI2
aI4
aI7
aI8
aI11
aI12
aI17
aI19
aI20
aI21
aI22
aI23
aI24
aI25
aa(lp616
I1
aI2
aI6
aI9
aI10
aI12
aI15
aI16
aI17
aI18
aI19
aI21
aI22
aI24
aI25
aa(lp617
I1
aI2
aI3
aI4
aI5
aI7
aI10
aI14
aI15
aI16
aI19
aI21
aI22
aI24
aI25
aa(lp618
I1
aI2
aI4
aI5
aI6
aI7
aI9
aI12
aI13
aI17
aI19
aI20
aI21
aI22
aI24
aa(lp619
I1
aI3
aI4
aI7
aI8
aI9
aI13
aI14
aI17
aI18
aI19
aI20
aI21
aI23
aI25
aa(lp620
I1
aI5
aI6
aI7
aI10
aI11
aI12
aI14
aI15
aI16
aI18
aI19
aI20
aI21
aI22
aa(lp621
I1
aI2
aI3
aI5
aI6
aI8
aI9
aI10
aI12
aI15
aI16
aI20
aI22
aI24
aI25
aa(lp622
I2
aI3
aI4
aI5
aI6
aI7
aI9
aI10
aI11
aI12
aI13
aI15
aI17
aI18
aI21
aa(lp623
I1
aI2
aI3
aI4
aI5
aI8
aI9
aI10
aI11
aI12
aI15
aI20
aI22
aI23
aI25
aa(lp624
I1
aI2
aI4
aI5
aI6
aI7
aI9
aI11
aI12
aI16
aI17
aI18
aI20
aI21
aI24
aa(lp625
I1
aI2
aI3
aI6
aI8
aI10
aI11
aI13
aI14
aI15
aI16
aI17
aI22
aI23
aI24
aa(lp626
I1
aI2
aI3
aI4
aI5
aI7
aI8
aI9
aI11
aI13
aI17
aI19
aI21
aI23
aI24
aa(lp627
I1
aI2
aI3
aI4
aI6
aI10
aI12
aI14
aI15
aI17
aI21
aI22
aI23
aI24
aI25
aa(lp628
I2
aI3
aI4
aI7
aI8
aI9
aI10
aI11
aI13
aI15
aI18
aI19
aI22
aI23
aI25
aa(lp629
I1
aI2
aI4
aI5
aI6
aI7
aI9
aI12
aI14
aI15
aI17
aI19
aI21
aI22
aI25
aa(lp630
I1
aI2
aI4
aI6
aI7
aI12
aI13
aI14
aI17
aI18
aI20
aI22
aI23
aI24
aI25
aa(lp631
I2
aI3
aI5
aI7
aI8
aI9
aI10
aI13
aI14
aI16
aI17
aI18
aI19
aI20
aI21
aa(lp632
I1
aI4
aI6
aI8
aI10
aI11
aI13
aI14
aI16
aI17
aI20
aI21
aI22
aI24
aI25
aa(lp633
I2
aI3
aI6
aI7
aI8
aI9
aI10
aI12
aI18
aI20
aI21
aI22
aI23
aI24
aI25
aa(lp634
I2
aI3
aI4
aI5
aI9
aI10
aI11
aI12
aI14
aI15
aI18
aI19
aI20
aI21
aI22
aa(lp635
I1
aI4
aI5
aI6
aI7
aI8
aI9
aI11
aI12
aI13
aI18
aI19
aI20
aI22
aI24
aa(lp636
I1
aI2
aI3
aI4
aI6
aI10
aI12
aI13
aI14
aI16
aI19
aI20
aI21
aI23
aI25
aa(lp637
I2
aI4
aI6
aI7
aI9
aI13
aI16
aI17
aI18
aI19
aI20
aI21
aI22
aI23
aI25
aa(lp638
I1
aI2
aI3
aI4
aI9
aI11
aI13
aI14
aI16
aI18
aI19
aI21
aI23
aI24
aI25
aa(lp639
I1
aI2
aI4
aI5
aI6
aI8
aI9
aI10
aI12
aI16
aI19
aI20
aI21
aI22
aI24
aa(lp640
I1
aI3
aI4
aI5
aI9
aI11
aI13
aI14
aI16
aI18
aI19
aI20
aI21
aI22
aI23
aa(lp641
I2
aI3
aI6
aI7
aI8
aI9
aI11
aI13
aI16
aI18
aI19
aI20
aI21
aI22
aI24
aa(lp642
I1
aI2
aI4
aI5
aI8
aI10
aI11
aI12
aI13
aI18
aI19
aI20
aI21
aI22
aI25
aa(lp643
I1
aI2
aI4
aI7
aI8
aI9
aI10
aI13
aI16
aI17
aI19
aI21
aI22
aI23
aI24
aa(lp644
I2
aI3
aI5
aI6
aI7
aI8
aI9
aI12
aI13
aI14
aI15
aI18
aI21
aI22
aI24
aa(lp645
I4
aI5
aI8
aI9
aI10
aI11
aI13
aI16
aI18
aI19
aI20
aI21
aI22
aI23
aI25
aa(lp646
I1
aI3
aI5
aI6
aI9
aI10
aI14
aI15
aI17
aI18
aI19
aI20
aI21
aI23
aI25
aa(lp647
I4
aI6
aI7
aI8
aI9
aI11
aI13
aI14
aI17
aI18
aI19
aI20
aI22
aI23
aI25
aa(lp648
I2
aI4
aI6
aI8
aI9
aI10
aI11
aI13
aI15
aI16
aI18
aI19
aI20
aI21
aI22
aa(lp649
I1
aI2
aI4
aI5
aI6
aI8
aI9
aI10
aI11
aI14
aI15
aI17
aI21
aI22
aI24
aa(lp650
I1
aI3
aI7
aI8
aI10
aI13
aI14
aI16
aI17
aI19
aI20
aI21
aI23
aI24
aI25
aa(lp651
I1
aI4
aI5
aI6
aI8
aI10
aI13
aI14
aI15
aI17
aI18
aI19
aI20
aI24
aI25
aa(lp652
I2
aI5
aI7
aI9
aI10
aI11
aI13
aI14
aI16
aI17
aI18
aI19
aI20
aI21
aI23
aa(lp653
I1
aI2
aI3
aI7
aI8
aI12
aI13
aI14
aI16
aI17
aI19
aI20
aI21
aI22
aI23
aa(lp654
I1
aI2
aI3
aI7
aI12
aI13
aI14
aI16
aI17
aI18
aI19
aI20
aI22
aI23
aI25
aa(lp655
I2
aI5
aI7
aI8
aI10
aI11
aI13
aI14
aI15
aI19
aI20
aI21
aI23
aI24
aI25
aa(lp656
I2
aI3
aI5
aI7
aI8
aI9
aI11
aI13
aI14
aI15
aI18
aI20
aI22
aI23
aI25
aa(lp657
I2
aI3
aI4
aI5
aI6
aI8
aI10
aI12
aI13
aI15
aI17
aI19
aI23
aI24
aI25
aa(lp658
I1
aI4
aI5
aI6
aI7
aI9
aI10
aI11
aI14
aI15
aI17
aI21
aI23
aI24
aI25
aa(lp659
I1
aI3
aI4
aI5
aI6
aI8
aI9
aI10
aI11
aI12
aI15
aI19
aI20
aI23
aI24
aa(lp660
I3
aI4
aI5
aI6
aI7
aI8
aI9
aI12
aI14
aI15
aI16
aI17
aI19
aI24
aI25
aa(lp661
I1
aI3
aI6
aI7
aI10
aI11
aI12
aI15
aI17
aI18
aI19
aI20
aI22
aI23
aI24
aa(lp662
I1
aI2
aI3
aI6
aI7
aI8
aI9
aI11
aI13
aI14
aI15
aI16
aI19
aI20
aI22
aa(lp663
I2
aI4
aI5
aI6
aI7
aI9
aI11
aI13
aI16
aI17
aI19
aI21
aI22
aI23
aI24
aa(lp664
I1
aI3
aI4
aI7
aI10
aI13
aI14
aI15
aI16
aI17
aI18
aI20
aI21
aI23
aI24
aa(lp665
I2
aI3
aI6
aI7
aI12
aI13
aI14
aI15
aI17
aI18
aI20
aI21
aI22
aI24
aI25
aa(lp666
I1
aI2
aI4
aI6
aI7
aI11
aI12
aI14
aI15
aI16
aI18
aI20
aI21
aI24
aI25
aa(lp667
I3
aI4
aI5
aI6
aI8
aI10
aI13
aI15
aI17
aI18
aI19
aI20
aI21
aI24
aI25
aa(lp668
I1
aI2
aI7
aI9
aI10
aI11
aI12
aI13
aI15
aI16
aI17
aI20
aI23
aI24
aI25
aa(lp669
I2
aI4
aI5
aI6
aI12
aI13
aI15
aI16
aI17
aI18
aI19
aI22
aI23
aI24
aI25
aa(lp670
I1
aI7
aI8
aI10
aI12
aI13
aI14
aI15
aI17
aI18
aI20
aI21
aI22
aI23
aI25
aa(lp671
I4
aI5
aI7
aI8
aI9
aI10
aI11
aI12
aI13
aI14
aI18
aI19
aI20
aI22
aI24
aa(lp672
I1
aI2
aI4
aI6
aI9
aI10
aI11
aI12
aI15
aI17
aI19
aI21
aI23
aI24
aI25
aa(lp673
I2
aI4
aI5
aI7
aI8
aI9
aI10
aI11
aI12
aI13
aI14
aI15
aI17
aI19
aI20
aa(lp674
I2
aI3
aI8
aI10
aI11
aI14
aI15
aI16
aI18
aI19
aI20
aI22
aI23
aI24
aI25
aa(lp675
I2
aI3
aI4
aI5
aI7
aI10
aI11
aI13
aI14
aI15
aI16
aI17
aI22
aI23
aI24
aa(lp676
I2
aI4
aI5
aI6
aI8
aI10
aI12
aI13
aI15
aI16
aI19
aI20
aI21
aI24
aI25
aa(lp677
I1
aI2
aI5
aI6
aI7
aI8
aI10
aI11
aI12
aI13
aI15
aI16
aI19
aI23
aI25
aa(lp678
I2
aI3
aI5
aI7
aI9
aI10
aI12
aI15
aI18
aI19
aI20
aI21
aI23
aI24
aI25
aa(lp679
I2
aI7
aI8
aI10
aI11
aI12
aI13
aI14
aI15
aI17
aI18
aI19
aI20
aI21
aI22
aa(lp680
I3
aI4
aI6
aI7
aI8
aI9
aI12
aI13
aI14
aI16
aI18
aI19
aI20
aI21
aI22
aa(lp681
I2
aI3
aI4
aI6
aI7
aI8
aI10
aI11
aI12
aI14
aI15
aI16
aI18
aI19
aI23
aa(lp682
I1
aI2
aI4
aI5
aI6
aI7
aI8
aI11
aI14
aI17
aI18
aI19
aI22
aI24
aI25
aa(lp683
I1
aI2
aI4
aI5
aI6
aI7
aI8
aI9
aI10
aI11
aI12
aI13
aI15
aI23
aI24
aa(lp684
I1
aI4
aI5
aI8
aI10
aI11
aI12
aI13
aI14
aI16
aI20
aI21
aI22
aI24
aI25
aa(lp685
I1
aI3
aI4
aI9
aI12
aI13
aI15
aI17
aI19
aI20
aI21
aI22
aI23
aI24
aI25
aa(lp686
I1
aI3
aI4
aI6
aI7
aI10
aI12
aI13
aI16
aI19
aI20
aI22
aI23
aI24
aI25
aa(lp687
I1
aI2
aI3
aI4
aI6
aI9
aI12
aI13
aI15
aI18
aI19
aI20
aI23
aI24
aI25
aa(lp688
I1
aI2
aI3
aI4
aI7
aI9
aI11
aI12
aI14
aI16
aI19
aI21
aI22
aI23
aI24
aa(lp689
I2
aI3
aI4
aI5
aI6
aI7
aI8
aI11
aI12
aI13
aI15
aI17
aI22
aI23
aI24
aa(lp690
I1
aI2
aI3
aI9
aI10
aI11
aI12
aI13
aI14
aI15
aI18
aI19
aI20
aI24
aI25
aa(lp691
I1
aI2
aI3
aI6
aI7
aI8
aI9
aI11
aI13
aI17
aI18
aI19
aI20
aI22
aI23
aa(lp692
I1
aI2
aI4
aI6
aI7
aI10
aI11
aI12
aI17
aI18
aI19
aI21
aI22
aI23
aI24
aa(lp693
I1
aI2
aI3
aI4
aI6
aI7
aI9
aI10
aI11
aI14
aI16
aI17
aI19
aI21
aI22
aa(lp694
I1
aI3
aI6
aI8
aI9
aI10
aI11
aI14
aI15
aI16
aI18
aI19
aI20
aI21
aI24
aa(lp695
I2
aI3
aI4
aI5
aI11
aI13
aI14
aI17
aI18
aI19
aI20
aI21
aI22
aI24
aI25
aa(lp696
I1
aI4
aI5
aI7
aI9
aI10
aI11
aI13
aI14
aI15
aI16
aI20
aI21
aI22
aI24
aa(lp697
I1
aI2
aI3
aI7
aI8
aI11
aI14
aI15
aI16
aI18
aI19
aI22
aI23
aI24
aI25
aa(lp698
I2
aI3
aI4
aI6
aI7
aI9
aI10
aI12
aI14
aI15
aI18
aI20
aI21
aI22
aI24
aa(lp699
I2
aI3
aI4
aI6
aI8
aI9
aI10
aI15
aI16
aI18
aI19
aI21
aI22
aI23
aI25
aa(lp700
I1
aI2
aI6
aI7
aI8
aI9
aI10
aI13
aI14
aI16
aI18
aI19
aI21
aI22
aI25
aa(lp701
I3
aI4
aI8
aI10
aI12
aI13
aI14
aI16
aI17
aI19
aI20
aI21
aI22
aI23
aI25
aa(lp702
I1
aI2
aI3
aI4
aI5
aI6
aI7
aI8
aI9
aI10
aI13
aI14
aI20
aI23
aI25
aa(lp703
I2
aI5
aI8
aI10
aI11
aI14
aI15
aI17
aI18
aI20
aI21
aI22
aI23
aI24
aI25
aa(lp704
I2
aI3
aI5
aI6
aI8
aI10
aI11
aI13
aI14
aI15
aI16
aI17
aI22
aI23
aI24
aa(lp705
I3
aI4
aI6
aI7
aI8
aI9
aI11
aI12
aI14
aI15
aI16
aI20
aI21
aI22
aI25
aa(lp706
I1
aI2
aI3
aI4
aI6
aI8
aI12
aI13
aI16
aI18
aI19
aI21
aI22
aI24
aI25
aa(lp707
I3
aI4
aI6
aI7
aI8
aI11
aI12
aI14
aI15
aI16
aI17
aI20
aI21
aI24
aI25
aa(lp708
I1
aI2
aI3
aI4
aI5
aI6
aI9
aI11
aI14
aI16
aI19
aI21
aI22
aI24
aI25
aa(lp709
I1
aI3
aI6
aI7
aI8
aI11
aI12
aI14
aI15
aI16
aI18
aI19
aI20
aI22
aI23
aa(lp710
I2
aI3
aI4
aI6
aI12
aI14
aI15
aI17
aI18
aI19
aI20
aI21
aI22
aI24
aI25
aa(lp711
I1
aI2
aI4
aI5
aI6
aI7
aI10
aI12
aI13
aI15
aI16
aI18
aI21
aI22
aI24
aa(lp712
I1
aI4
aI8
aI9
aI12
aI14
aI15
aI16
aI17
aI18
aI20
aI21
aI22
aI23
aI25
aa(lp713
I2
aI3
aI4
aI5
aI6
aI11
aI13
aI14
aI15
aI19
aI21
aI22
aI23
aI24
aI25
aa(lp714
I4
aI6
aI7
aI8
aI9
aI10
aI11
aI12
aI13
aI14
aI15
aI17
aI19
aI21
aI22
aa(lp715
I1
aI3
aI5
aI8
aI10
aI11
aI13
aI14
aI15
aI18
aI20
aI22
aI23
aI24
aI25
aa(lp716
I1
aI3
aI5
aI7
aI8
aI11
aI12
aI14
aI15
aI16
aI18
aI20
aI21
aI23
aI25
aa(lp717
I1
aI2
aI3
aI5
aI7
aI8
aI9
aI11
aI14
aI16
aI18
aI20
aI21
aI23
aI25
aa(lp718
I3
aI4
aI7
aI9
aI11
aI13
aI14
aI15
aI17
aI19
aI21
aI22
aI23
aI24
aI25
aa(lp719
I2
aI7
aI8
aI9
aI10
aI11
aI13
aI15
aI16
aI18
aI19
aI22
aI23
aI24
aI25
aa(lp720
I4
aI7
aI9
aI10
aI11
aI12
aI13
aI16
aI17
aI18
aI20
aI21
aI23
aI24
aI25
aa(lp721
I1
aI2
aI3
aI4
aI5
aI7
aI8
aI9
aI10
aI11
aI12
aI14
aI15
aI19
aI21
aa(lp722
I1
aI3
aI5
aI6
aI7
aI8
aI10
aI13
aI14
aI16
aI17
aI19
aI20
aI23
aI24
aa(lp723
I2
aI3
aI4
aI5
aI7
aI8
aI9
aI10
aI11
aI12
aI14
aI15
aI18
aI20
aI24
aa(lp724
I1
aI3
aI5
aI6
aI7
aI10
aI12
aI14
aI15
aI18
aI19
aI20
aI23
aI24
aI25
aa(lp725
I1
aI5
aI6
aI7
aI9
aI10
aI12
aI13
aI15
aI16
aI17
aI18
aI21
aI24
aI25
aa(lp726
I1
aI2
aI4
aI7
aI9
aI10
aI11
aI13
aI14
aI15
aI16
aI20
aI21
aI24
aI25
aa(lp727
I3
aI4
aI6
aI7
aI8
aI9
aI11
aI16
aI18
aI20
aI21
aI22
aI23
aI24
aI25
aa(lp728
I3
aI4
aI6
aI7
aI8
aI10
aI11
aI13
aI16
aI19
aI20
aI21
aI22
aI23
aI25
aa(lp729
I1
aI2
aI3
aI4
aI6
aI7
aI9
aI10
aI12
aI14
aI15
aI17
aI22
aI23
aI25
aa(lp730
I1
aI3
aI4
aI8
aI11
aI12
aI14
aI16
aI18
aI19
aI20
aI21
aI22
aI24
aI25
aa(lp731
I3
aI4
aI6
aI7
aI8
aI11
aI12
aI14
aI15
aI17
aI18
aI19
aI21
aI22
aI24
aa(lp732
I1
aI4
aI8
aI9
aI10
aI11
aI13
aI14
aI17
aI20
aI21
aI22
aI23
aI24
aI25
aa(lp733
I1
aI4
aI5
aI6
aI7
aI8
aI11
aI12
aI14
aI16
aI18
aI19
aI20
aI22
aI24
aa(lp734
I2
aI3
aI6
aI8
aI9
aI10
aI13
aI15
aI17
aI18
aI19
aI20
aI21
aI23
aI24
aa(lp735
I5
aI6
aI8
aI10
aI11
aI12
aI13
aI14
aI17
aI19
aI20
aI21
aI22
aI24
aI25
aa(lp736
I2
aI3
aI4
aI5
aI6
aI8
aI9
aI10
aI13
aI15
aI16
aI17
aI19
aI21
aI23
aa(lp737
I2
aI3
aI4
aI5
aI6
aI7
aI8
aI10
aI12
aI14
aI16
aI17
aI18
aI22
aI25
aa(lp738
I2
aI6
aI7
aI9
aI11
aI12
aI13
aI14
aI16
aI18
aI19
aI20
aI23
aI24
aI25
aa(lp739
I2
aI3
aI4
aI8
aI9
aI10
aI11
aI14
aI17
aI20
aI21
aI22
aI23
aI24
aI25
aa(lp740
I1
aI4
aI5
aI9
aI10
aI11
aI12
aI13
aI14
aI19
aI21
aI22
aI23
aI24
aI25
aa(lp741
I2
aI3
aI5
aI7
aI10
aI11
aI12
aI13
aI14
aI16
aI17
aI18
aI21
aI24
aI25
aa(lp742
I1
aI3
aI5
aI6
aI7
aI8
aI9
aI11
aI13
aI14
aI15
aI19
aI20
aI21
aI23
aa(lp743
I1
aI2
aI3
aI6
aI9
aI10
aI11
aI12
aI14
aI15
aI17
aI21
aI22
aI23
aI24
aa(lp744
I1
aI3
aI4
aI6
aI7
aI9
aI10
aI11
aI12
aI13
aI15
aI16
aI19
aI23
aI24
aa(lp745
I1
aI3
aI6
aI7
aI8
aI9
aI11
aI12
aI13
aI16
aI17
aI20
aI22
aI24
aI25
aa(lp746
I2
aI3
aI4
aI5
aI8
aI9
aI10
aI16
aI17
aI18
aI19
aI20
aI21
aI24
aI25
aa(lp747
I1
aI2
aI3
aI4
aI6
aI7
aI10
aI12
aI13
aI15
aI16
aI17
aI20
aI23
aI24
aa(lp748
I1
aI3
aI4
aI5
aI6
aI8
aI9
aI10
aI12
aI15
aI17
aI18
aI20
aI21
aI23
aa(lp749
I1
aI2
aI3
aI4
aI6
aI7
aI8
aI11
aI13
aI14
aI15
aI18
aI19
aI22
aI24
aa(lp750
I2
aI3
aI4
aI5
aI7
aI9
aI10
aI11
aI13
aI15
aI19
aI20
aI21
aI24
aI25
aa(lp751
I3
aI5
aI6
aI8
aI9
aI12
aI13
aI14
aI16
aI17
aI19
aI20
aI21
aI22
aI23
aa(lp752
I1
aI4
aI5
aI6
aI7
aI8
aI12
aI13
aI14
aI16
aI18
aI19
aI21
aI24
aI25
aa(lp753
I1
aI3
aI4
aI5
aI6
aI7
aI8
aI11
aI13
aI14
aI17
aI20
aI21
aI22
aI25
aa(lp754
I1
aI4
aI5
aI7
aI13
aI15
aI16
aI17
aI18
aI19
aI20
aI22
aI23
aI24
aI25
aa(lp755
I1
aI2
aI3
aI5
aI7
aI8
aI10
aI11
aI12
aI13
aI14
aI16
aI17
aI24
aI25
aa(lp756
I3
aI5
aI6
aI7
aI8
aI10
aI13
aI14
aI15
aI16
aI17
aI20
aI22
aI23
aI25
aa(lp757
I1
aI3
aI4
aI8
aI9
aI10
aI11
aI13
aI14
aI15
aI17
aI18
aI20
aI21
aI23
aa(lp758
I1
aI2
aI4
aI5
aI6
aI11
aI12
aI15
aI16
aI17
aI18
aI20
aI23
aI24
aI25
aa(lp759
I2
aI5
aI7
aI8
aI9
aI10
aI15
aI16
aI17
aI18
aI19
aI20
aI23
aI24
aI25
aa(lp760
I1
aI2
aI3
aI7
aI9
aI10
aI11
aI12
aI13
aI15
aI16
aI17
aI23
aI24
aI25
aa(lp761
I1
aI4
aI5
aI6
aI10
aI11
aI12
aI13
aI14
aI15
aI16
aI19
aI20
aI22
aI24
aa(lp762
I1
aI2
aI3
aI5
aI6
aI7
aI9
aI10
aI11
aI12
aI13
aI14
aI17
aI21
aI22
aa(lp763
I1
aI2
aI3
aI4
aI6
aI7
aI13
aI14
aI16
aI17
aI18
aI21
aI22
aI24
aI25
aa(lp764
I1
aI3
aI4
aI6
aI8
aI9
aI11
aI12
aI14
aI16
aI17
aI19
aI23
aI24
aI25
aa(lp765
I1
aI2
aI3
aI7
aI8
aI9
aI10
aI12
aI13
aI14
aI18
aI20
aI23
aI24
aI25
aa(lp766
I1
aI3
aI5
aI6
aI7
aI9
aI12
aI13
aI14
aI15
aI16
aI18
aI21
aI24
aI25
aa(lp767
I1
aI3
aI4
aI5
aI7
aI8
aI10
aI11
aI12
aI15
aI17
aI19
aI22
aI23
aI24
aa(lp768
I1
aI3
aI5
aI6
aI11
aI12
aI13
aI14
aI15
aI17
aI19
aI20
aI23
aI24
aI25
aa(lp769
I3
aI4
aI5
aI7
aI10
aI11
aI13
aI15
aI16
aI17
aI19
aI20
aI22
aI23
aI25
aa(lp770
I1
aI3
aI4
aI5
aI6
aI9
aI11
aI12
aI16
aI17
aI18
aI21
aI22
aI24
aI25
aa(lp771
I2
aI4
aI5
aI6
aI7
aI8
aI9
aI10
aI14
aI16
aI17
aI20
aI22
aI23
aI25
aa(lp772
I2
aI4
aI6
aI7
aI8
aI9
aI10
aI11
aI12
aI15
aI16
aI20
aI23
aI24
aI25
aa(lp773
I2
aI5
aI6
aI7
aI8
aI10
aI11
aI13
aI15
aI17
aI18
aI20
aI22
aI24
aI25
aa(lp774
I1
aI3
aI4
aI5
aI6
aI8
aI9
aI11
aI12
aI14
aI15
aI18
aI19
aI22
aI25
aa(lp775
I2
aI3
aI6
aI7
aI8
aI9
aI10
aI12
aI13
aI14
aI16
aI17
aI18
aI19
aI20
aa(lp776
I1
aI2
aI3
aI4
aI10
aI11
aI12
aI13
aI14
aI18
aI19
aI20
aI22
aI23
aI24
aa(lp777
I2
aI3
aI6
aI9
aI11
aI12
aI13
aI14
aI15
aI16
aI20
aI21
aI23
aI24
aI25
aa(lp778
I2
aI5
aI6
aI7
aI9
aI10
aI11
aI13
aI15
aI16
aI19
aI20
aI22
aI24
aI25
aa(lp779
I4
aI5
aI8
aI9
aI11
aI12
aI13
aI14
aI16
aI17
aI19
aI20
aI21
aI22
aI23
aa(lp780
I3
aI6
aI7
aI8
aI10
aI13
aI15
aI16
aI17
aI18
aI19
aI20
aI21
aI24
aI25
aa(lp781
I1
aI2
aI4
aI8
aI9
aI10
aI11
aI14
aI15
aI16
aI17
aI19
aI20
aI22
aI25
aa(lp782
I5
aI8
aI9
aI10
aI11
aI12
aI13
aI14
aI15
aI16
aI17
aI18
aI19
aI20
aI21
aa(lp783
I1
aI2
aI5
aI6
aI7
aI8
aI11
aI13
aI15
aI16
aI19
aI20
aI21
aI22
aI24
aa(lp784
I1
aI2
aI3
aI4
aI7
aI11
aI12
aI13
aI15
aI18
aI20
aI21
aI22
aI23
aI25
aa(lp785
I1
aI2
aI4
aI6
aI7
aI10
aI11
aI12
aI13
aI15
aI16
aI17
aI19
aI21
aI23
aa(lp786
I2
aI4
aI5
aI6
aI8
aI10
aI11
aI12
aI13
aI15
aI17
aI21
aI23
aI24
aI25
aa(lp787
I1
aI4
aI5
aI8
aI9
aI10
aI11
aI12
aI13
aI14
aI16
aI17
aI19
aI20
aI23
aa(lp788
I1
aI3
aI4
aI8
aI9
aI10
aI11
aI12
aI16
aI19
aI21
aI22
aI23
aI24
aI25
aa(lp789
I2
aI3
aI4
aI8
aI10
aI11
aI12
aI14
aI15
aI16
aI18
aI19
aI21
aI22
aI24
aa(lp790
I3
aI6
aI7
aI8
aI10
aI12
aI13
aI16
aI18
aI19
aI20
aI22
aI23
aI24
aI25
aa(lp791
I1
aI2
aI3
aI5
aI6
aI7
aI8
aI10
aI11
aI13
aI14
aI21
aI22
aI23
aI25
aa(lp792
I1
aI2
aI3
aI6
aI8
aI9
aI10
aI12
aI14
aI18
aI19
aI20
aI21
aI23
aI25
aa(lp793
I2
aI4
aI5
aI7
aI9
aI11
aI12
aI14
aI16
aI17
aI18
aI20
aI21
aI23
aI25
aa(lp794
I1
aI2
aI3
aI4
aI5
aI6
aI8
aI9
aI11
aI14
aI15
aI20
aI23
aI24
aI25
aa(lp795
I1
aI2
aI3
aI4
aI6
aI7
aI8
aI9
aI10
aI12
aI14
aI16
aI21
aI22
aI24
aa(lp796
I2
aI3
aI4
aI6
aI7
aI8
aI10
aI11
aI14
aI16
aI17
aI18
aI20
aI21
aI24
aa(lp797
I2
aI3
aI5
aI6
aI7
aI8
aI11
aI15
aI17
aI18
aI19
aI20
aI21
aI24
aI25
aa(lp798
I1
aI3
aI5
aI6
aI8
aI10
aI11
aI13
aI15
aI16
aI18
aI19
aI22
aI23
aI24
aa(lp799
I3
aI4
aI6
aI8
aI11
aI13
aI14
aI15
aI16
aI19
aI21
aI22
aI23
aI24
aI25
aa(lp800
I3
aI4
aI6
aI7
aI8
aI9
aI10
aI11
aI12
aI13
aI16
aI20
aI21
aI22
aI24
aa(lp801
I1
aI3
aI4
aI5
aI6
aI7
aI10
aI12
aI15
aI17
aI18
aI19
aI21
aI23
aI25
aa(lp802
I1
aI3
aI4
aI5
aI8
aI9
aI10
aI12
aI13
aI14
aI18
aI20
aI21
aI22
aI25
aa(lp803
I1
aI4
aI5
aI12
aI14
aI15
aI16
aI17
aI18
aI19
aI20
aI21
aI23
aI24
aI25
aa(lp804
I1
aI3
aI4
aI5
aI6
aI7
aI8
aI13
aI15
aI17
aI18
aI20
aI21
aI23
aI24
aa(lp805
I1
aI2
aI4
aI6
aI7
aI9
aI11
aI13
aI14
aI16
aI17
aI20
aI22
aI24
aI25
aa(lp806
I1
aI2
aI3
aI5
aI6
aI7
aI8
aI10
aI14
aI15
aI16
aI19
aI20
aI24
aI25
aa(lp807
I2
aI3
aI4
aI5
aI7
aI8
aI10
aI11
aI13
aI18
aI19
aI21
aI22
aI24
aI25
aa(lp808
I4
aI6
aI7
aI10
aI11
aI12
aI14
aI16
aI17
aI18
aI20
aI21
aI22
aI24
aI25
aa(lp809
I1
aI2
aI4
aI5
aI7
aI9
aI13
aI16
aI18
aI19
aI21
aI22
aI23
aI24
aI25
aa(lp810
I1
aI3
aI6
aI7
aI9
aI11
aI12
aI15
aI16
aI17
aI18
aI21
aI22
aI23
aI24
aa(lp811
I1
aI2
aI3
aI4
aI5
aI6
aI7
aI9
aI10
aI12
aI14
aI17
aI19
aI20
aI22
aa(lp812
I1
aI3
aI5
aI7
aI8
aI11
aI14
aI17
aI18
aI19
aI20
aI21
aI23
aI24
aI25
aa(lp813
I1
aI3
aI4
aI5
aI6
aI7
aI8
aI10
aI12
aI16
aI19
aI21
aI23
aI24
aI25
aa(lp814
I3
aI4
aI8
aI10
aI11
aI12
aI13
aI14
aI17
aI19
aI20
aI21
aI22
aI23
aI24
aa(lp815
I6
aI7
aI8
aI10
aI11
aI14
aI15
aI17
aI18
aI20
aI21
aI22
aI23
aI24
aI25
aa(lp816
I2
aI3
aI5
aI8
aI9
aI10
aI11
aI12
aI13
aI15
aI16
aI17
aI19
aI23
aI25
aa(lp817
I1
aI2
aI3
aI4
aI5
aI8
aI10
aI11
aI12
aI17
aI18
aI20
aI23
aI24
aI25
aa(lp818
I4
aI5
aI6
aI8
aI10
aI11
aI13
aI14
aI16
aI19
aI20
aI22
aI23
aI24
aI25
aa(lp819
I3
aI4
aI5
aI6
aI7
aI8
aI9
aI10
aI11
aI12
aI18
aI19
aI20
aI21
aI22
aa(lp820
I1
aI2
aI3
aI5
aI6
aI7
aI8
aI9
aI10
aI13
aI15
aI16
aI22
aI23
aI24
aa(lp821
I3
aI4
aI5
aI7
aI9
aI10
aI11
aI12
aI14
aI16
aI17
aI21
aI23
aI24
aI25
aa(lp822
I2
aI3
aI5
aI11
aI12
aI14
aI15
aI16
aI17
aI18
aI19
aI21
aI22
aI23
aI24
aa(lp823
I1
aI2
aI4
aI5
aI9
aI11
aI12
aI13
aI14
aI16
aI19
aI20
aI22
aI24
aI25
aa(lp824
I2
aI3
aI4
aI7
aI11
aI12
aI13
aI14
aI15
aI19
aI20
aI21
aI22
aI24
aI25
aa(lp825
I1
aI6
aI7
aI8
aI9
aI10
aI11
aI13
aI14
aI15
aI17
aI19
aI22
aI23
aI25
aa(lp826
I3
aI5
aI6
aI12
aI13
aI14
aI15
aI16
aI17
aI18
aI19
aI20
aI21
aI23
aI24
aa(lp827
I1
aI2
aI4
aI5
aI7
aI9
aI10
aI12
aI13
aI14
aI16
aI17
aI21
aI22
aI24
aa(lp828
I1
aI6
aI7
aI8
aI9
aI12
aI14
aI15
aI17
aI19
aI20
aI22
aI23
aI24
aI25
aa(lp829
I2
aI5
aI7
aI8
aI9
aI11
aI13
aI14
aI16
aI17
aI18
aI22
aI23
aI24
aI25
aa(lp830
I1
aI4
aI6
aI9
aI10
aI11
aI12
aI13
aI14
aI16
aI17
aI19
aI21
aI23
aI24
aa(lp831
I1
aI2
aI3
aI5
aI9
aI10
aI11
aI12
aI14
aI16
aI17
aI18
aI20
aI21
aI22
aa(lp832
I2
aI5
aI6
aI7
aI8
aI10
aI11
aI12
aI15
aI16
aI19
aI22
aI23
aI24
aI25
aa(lp833
I2
aI5
aI6
aI7
aI10
aI11
aI12
aI13
aI16
aI17
aI18
aI19
aI20
aI22
aI25
aa(lp834
I2
aI4
aI7
aI8
aI9
aI10
aI11
aI14
aI16
aI18
aI19
aI20
aI21
aI22
aI23
aa(lp835
I1
aI2
aI4
aI6
aI8
aI12
aI14
aI15
aI16
aI17
aI18
aI19
aI21
aI24
aI25
aa(lp836
I2
aI4
aI7
aI8
aI9
aI10
aI12
aI14
aI15
aI16
aI18
aI20
aI21
aI22
aI25
aa(lp837
I1
aI3
aI7
aI8
aI10
aI11
aI12
aI13
aI14
aI15
aI16
aI18
aI20
aI22
aI24
aa(lp838
I2
aI4
aI5
aI7
aI9
aI10
aI11
aI14
aI15
aI16
aI18
aI20
aI21
aI23
aI24
aa(lp839
I2
aI3
aI4
aI6
aI7
aI8
aI13
aI14
aI16
aI17
aI19
aI21
aI22
aI24
aI25
aa(lp840
I2
aI4
aI6
aI9
aI11
aI12
aI13
aI17
aI18
aI19
aI20
aI21
aI22
aI23
aI25
aa(lp841
I1
aI3
aI5
aI6
aI8
aI10
aI12
aI13
aI14
aI15
aI16
aI17
aI20
aI21
aI24
aa(lp842
I3
aI4
aI5
aI7
aI10
aI11
aI13
aI14
aI15
aI18
aI19
aI20
aI21
aI22
aI24
aa(lp843
I3
aI4
aI7
aI8
aI11
aI12
aI13
aI15
aI16
aI17
aI19
aI20
aI21
aI22
aI24
aa(lp844
I1
aI3
aI5
aI7
aI8
aI9
aI10
aI12
aI15
aI16
aI17
aI19
aI22
aI24
aI25
aa(lp845
I2
aI4
aI6
aI7
aI11
aI12
aI14
aI16
aI18
aI19
aI21
aI22
aI23
aI24
aI25
aa(lp846
I1
aI4
aI6
aI9
aI10
aI11
aI13
aI14
aI15
aI19
aI20
aI21
aI23
aI24
aI25
aa(lp847
I1
aI3
aI5
aI6
aI7
aI9
aI10
aI11
aI13
aI14
aI17
aI18
aI20
aI21
aI25
aa(lp848
I2
aI3
aI5
aI8
aI9
aI13
aI14
aI16
aI17
aI18
aI19
aI21
aI23
aI24
aI25
aa(lp849
I1
aI4
aI5
aI10
aI12
aI13
aI14
aI15
aI16
aI17
aI18
aI20
aI23
aI24
aI25
aa(lp850
I2
aI3
aI5
aI7
aI8
aI10
aI13
aI14
aI18
aI19
aI20
aI21
aI22
aI23
aI24
aa(lp851
I1
aI4
aI5
aI6
aI7
aI10
aI13
aI14
aI15
aI17
aI18
aI19
aI20
aI22
aI24
aa(lp852
I1
aI2
aI3
aI4
aI5
aI8
aI11
aI12
aI16
aI18
aI20
aI21
aI23
aI24
aI25
aa(lp853
I2
aI3
aI5
aI6
aI8
aI9
aI11
aI12
aI17
aI18
aI19
aI20
aI21
aI22
aI23
aa(lp854
I1
aI2
aI3
aI5
aI8
aI9
aI10
aI13
aI14
aI15
aI17
aI18
aI20
aI21
aI22
aa(lp855
I1
aI3
aI4
aI8
aI9
aI10
aI11
aI13
aI14
aI15
aI17
aI18
aI23
aI24
aI25
aa(lp856
I2
aI3
aI7
aI8
aI9
aI11
aI12
aI13
aI15
aI16
aI19
aI20
aI22
aI23
aI25
aa(lp857
I1
aI3
aI4
aI6
aI8
aI11
aI13
aI14
aI15
aI16
aI18
aI19
aI20
aI21
aI24
aa(lp858
I1
aI3
aI4
aI5
aI6
aI8
aI9
aI11
aI12
aI17
aI19
aI20
aI22
aI23
aI25
aa(lp859
I1
aI2
aI3
aI4
aI5
aI6
aI9
aI10
aI11
aI13
aI14
aI17
aI18
aI19
aI20
aa(lp860
I3
aI4
aI5
aI6
aI7
aI9
aI10
aI13
aI14
aI15
aI16
aI19
aI22
aI24
aI25
aa(lp861
I1
aI2
aI3
aI4
aI6
aI7
aI9
aI10
aI11
aI14
aI15
aI17
aI19
aI22
aI23
aa(lp862
I1
aI2
aI3
aI4
aI5
aI10
aI13
aI14
aI15
aI17
aI18
aI19
aI20
aI23
aI24
aa(lp863
I1
aI3
aI4
aI7
aI8
aI13
aI15
aI16
aI17
aI18
aI19
aI22
aI23
aI24
aI25
aa(lp864
I3
aI6
aI8
aI10
aI12
aI13
aI15
aI16
aI17
aI18
aI19
aI21
aI22
aI23
aI24
aa(lp865
I1
aI3
aI4
aI5
aI6
aI7
aI10
aI13
aI18
aI19
aI20
aI21
aI22
aI23
aI25
aa(lp866
I1
aI2
aI3
aI5
aI7
aI8
aI9
aI10
aI11
aI13
aI14
aI18
aI20
aI23
aI24
aa(lp867
I2
aI3
aI4
aI5
aI6
aI7
aI8
aI10
aI12
aI13
aI14
aI15
aI21
aI22
aI25
aa(lp868
I1
aI2
aI3
aI8
aI9
aI10
aI12
aI13
aI14
aI16
aI17
aI19
aI21
aI22
aI24
aa(lp869
I1
aI3
aI6
aI9
aI10
aI11
aI12
aI14
aI18
aI20
aI21
aI22
aI23
aI24
aI25
aa(lp870
I1
aI2
aI4
aI5
aI6
aI7
aI8
aI10
aI12
aI13
aI14
aI16
aI17
aI18
aI23
aa(lp871
I2
aI4
aI6
aI8
aI9
aI10
aI12
aI13
aI14
aI15
aI17
aI19
aI22
aI23
aI24
aa(lp872
I1
aI2
aI4
aI5
aI6
aI7
aI9
aI10
aI12
aI13
aI14
aI17
aI18
aI22
aI23
aa(lp873
I2
aI3
aI6
aI7
aI8
aI9
aI11
aI12
aI13
aI14
aI15
aI17
aI18
aI22
aI25
aa(lp874
I1
aI2
aI4
aI5
aI6
aI7
aI8
aI9
aI10
aI16
aI19
aI20
aI21
aI23
aI25
aa(lp875
I2
aI4
aI6
aI8
aI9
aI10
aI12
aI13
aI15
aI18
aI21
aI22
aI23
aI24
aI25
aa(lp876
I3
aI5
aI6
aI7
aI9
aI12
aI13
aI14
aI16
aI18
aI20
aI21
aI23
aI24
aI25
aa(lp877
I3
aI7
aI8
aI9
aI10
aI11
aI13
aI14
aI15
aI16
aI18
aI19
aI21
aI23
aI25
aa(lp878
I1
aI2
aI3
aI5
aI6
aI7
aI10
aI12
aI13
aI14
aI16
aI19
aI22
aI23
aI25
aa(lp879
I2
aI3
aI4
aI7
aI9
aI10
aI12
aI13
aI15
aI16
aI18
aI21
aI22
aI24
aI25
aa(lp880
I2
aI5
aI6
aI7
aI8
aI10
aI14
aI16
aI18
aI19
aI21
aI22
aI23
aI24
aI25
aa(lp881
I1
aI3
aI4
aI5
aI6
aI7
aI8
aI9
aI15
aI16
aI19
aI20
aI21
aI22
aI23
aa(lp882
I1
aI2
aI7
aI8
aI10
aI11
aI12
aI13
aI14
aI17
aI18
aI19
aI22
aI24
aI25
aa(lp883
I3
aI5
aI6
aI7
aI8
aI9
aI10
aI12
aI16
aI17
aI18
aI19
aI21
aI22
aI25
aa(lp884
I1
aI4
aI7
aI8
aI9
aI10
aI12
aI13
aI15
aI17
aI18
aI19
aI20
aI21
aI25
aa(lp885
I2
aI5
aI7
aI8
aI9
aI11
aI12
aI15
aI16
aI17
aI18
aI19
aI22
aI23
aI24
aa(lp886
I1
aI3
aI4
aI7
aI8
aI10
aI11
aI12
aI13
aI15
aI16
aI17
aI20
aI21
aI23
aa(lp887
I1
aI6
aI8
aI10
aI11
aI12
aI15
aI17
aI18
aI19
aI20
aI21
aI23
aI24
aI25
aa(lp888
I1
aI3
aI6
aI11
aI12
aI13
aI14
aI16
aI17
aI18
aI19
aI20
aI21
aI22
aI24
aa(lp889
I2
aI4
aI5
aI6
aI7
aI9
aI11
aI12
aI13
aI16
aI18
aI19
aI21
aI22
aI25
aa(lp890
I1
aI2
aI3
aI4
aI5
aI6
aI7
aI8
aI11
aI16
aI17
aI18
aI19
aI23
aI24
aa(lp891
I1
aI5
aI6
aI7
aI8
aI12
aI14
aI15
aI16
aI17
aI19
aI21
aI23
aI24
aI25
aa(lp892
I1
aI2
aI3
aI5
aI6
aI10
aI13
aI14
aI16
aI17
aI19
aI20
aI21
aI22
aI24
aa(lp893
I1
aI2
aI3
aI4
aI5
aI6
aI8
aI9
aI11
aI15
aI16
aI20
aI22
aI23
aI24
aa(lp894
I1
aI2
aI5
aI6
aI9
aI12
aI13
aI14
aI15
aI18
aI19
aI21
aI22
aI24
aI25
aa(lp895
I2
aI3
aI4
aI5
aI6
aI8
aI11
aI12
aI13
aI16
aI17
aI18
aI19
aI21
aI25
aa(lp896
I1
aI2
aI3
aI4
aI6
aI7
aI8
aI12
aI13
aI15
aI17
aI18
aI19
aI20
aI23
aa(lp897
I1
aI2
aI5
aI7
aI8
aI9
aI10
aI11
aI13
aI14
aI16
aI17
aI18
aI21
aI23
aa(lp898
I1
aI4
aI6
aI8
aI9
aI10
aI11
aI12
aI13
aI14
aI18
aI20
aI21
aI24
aI25
aa(lp899
I1
aI4
aI7
aI9
aI10
aI12
aI14
aI15
aI16
aI17
aI18
aI20
aI21
aI23
aI25
aa(lp900
I1
aI2
aI6
aI7
aI8
aI10
aI11
aI12
aI13
aI15
aI18
aI20
aI22
aI24
aI25
aa(lp901
I1
aI2
aI4
aI6
aI7
aI10
aI12
aI13
aI14
aI16
aI18
aI22
aI23
aI24
aI25
aa(lp902
I1
aI2
aI3
aI4
aI5
aI6
aI8
aI9
aI11
aI17
aI20
aI21
aI23
aI24
aI25
aa(lp903
I1
aI2
aI3
aI4
aI5
aI6
aI8
aI10
aI11
aI13
aI15
aI16
aI18
aI20
aI22
aa(lp904
I1
aI5
aI6
aI7
aI9
aI10
aI12
aI13
aI16
aI17
aI18
aI19
aI20
aI22
aI24
aa(lp905
I1
aI4
aI6
aI8
aI10
aI11
aI12
aI13
aI14
aI16
aI17
aI20
aI21
aI22
aI23
aa(lp906
I1
aI2
aI3
aI5
aI6
aI7
aI8
aI9
aI10
aI12
aI17
aI18
aI21
aI22
aI24
aa(lp907
I2
aI3
aI4
aI5
aI7
aI8
aI10
aI13
aI14
aI15
aI16
aI20
aI21
aI22
aI23
aa(lp908
I1
aI2
aI4
aI6
aI7
aI9
aI10
aI12
aI13
aI15
aI17
aI18
aI23
aI24
aI25
aa(lp909
I1
aI2
aI3
aI5
aI6
aI7
aI8
aI10
aI11
aI12
aI13
aI18
aI20
aI21
aI22
aa(lp910
I3
aI4
aI5
aI6
aI8
aI9
aI11
aI13
aI16
aI17
aI18
aI19
aI20
aI24
aI25
aa(lp911
I1
aI2
aI3
aI5
aI6
aI8
aI11
aI13
aI15
aI17
aI21
aI22
aI23
aI24
aI25
aa(lp912
I2
aI3
aI4
aI7
aI10
aI14
aI15
aI16
aI17
aI18
aI19
aI20
aI21
aI22
aI23
aa(lp913
I3
aI4
aI5
aI6
aI10
aI12
aI13
aI15
aI17
aI18
aI19
aI20
aI22
aI24
aI25
aa(lp914
I1
aI3
aI4
aI5
aI6
aI10
aI11
aI12
aI15
aI17
aI18
aI20
aI22
aI23
aI24
aa(lp915
I1
aI2
aI4
aI5
aI6
aI8
aI10
aI11
aI13
aI18
aI20
aI22
aI23
aI24
aI25
aa(lp916
I1
aI2
aI3
aI4
aI5
aI6
aI7
aI11
aI13
aI14
aI17
aI18
aI19
aI23
aI24
aa(lp917
I1
aI2
aI3
aI4
aI5
aI6
aI11
aI13
aI14
aI17
aI19
aI20
aI21
aI22
aI24
aa(lp918
I1
aI2
aI3
aI4
aI6
aI8
aI9
aI13
aI14
aI15
aI16
aI17
aI21
aI22
aI23
aa(lp919
I1
aI2
aI3
aI4
aI5
aI7
aI9
aI10
aI11
aI13
aI14
aI17
aI19
aI21
aI22
aa(lp920
I1
aI2
aI3
aI4
aI5
aI6
aI10
aI12
aI13
aI15
aI16
aI19
aI20
aI22
aI23
aa(lp921
I1
aI2
aI3
aI4
aI7
aI9
aI12
aI15
aI16
aI17
aI18
aI19
aI21
aI24
aI25
aa(lp922
I2
aI4
aI5
aI6
aI8
aI9
aI12
aI15
aI16
aI17
aI20
aI21
aI22
aI23
aI24
aa(lp923
I1
aI3
aI4
aI5
aI6
aI7
aI10
aI12
aI14
aI15
aI19
aI20
aI22
aI24
aI25
aa(lp924
I1
aI2
aI6
aI7
aI8
aI9
aI10
aI12
aI14
aI16
aI17
aI18
aI19
aI20
aI24
aa(lp925
I1
aI3
aI4
aI6
aI7
aI9
aI12
aI13
aI14
aI15
aI16
aI22
aI23
aI24
aI25
aa(lp926
I1
aI5
aI6
aI7
aI8
aI9
aI10
aI11
aI12
aI13
aI14
aI15
aI19
aI21
aI24
aa(lp927
I2
aI3
aI5
aI6
aI9
aI11
aI13
aI14
aI16
aI17
aI20
aI21
aI22
aI23
aI25
aa(lp928
I1
aI4
aI6
aI8
aI9
aI10
aI11
aI12
aI14
aI15
aI17
aI19
aI23
aI24
aI25
aa(lp929
I1
aI2
aI4
aI5
aI7
aI8
aI9
aI10
aI11
aI14
aI18
aI20
aI21
aI23
aI25
aa(lp930
I2
aI3
aI5
aI6
aI9
aI11
aI12
aI14
aI15
aI16
aI20
aI22
aI23
aI24
aI25
aa(lp931
I2
aI3
aI5
aI6
aI8
aI10
aI11
aI12
aI14
aI16
aI19
aI20
aI22
aI24
aI25
aa(lp932
I1
aI4
aI5
aI8
aI12
aI13
aI14
aI15
aI16
aI18
aI20
aI21
aI22
aI23
aI25
aa(lp933
I2
aI3
aI4
aI5
aI6
aI7
aI10
aI11
aI14
aI15
aI16
aI17
aI19
aI23
aI24
aa(lp934
I2
aI3
aI4
aI8
aI9
aI10
aI11
aI14
aI19
aI20
aI21
aI22
aI23
aI24
aI25
aa(lp935
I1
aI2
aI3
aI4
aI5
aI6
aI7
aI9
aI10
aI12
aI14
aI18
aI19
aI22
aI23
aa(lp936
I1
aI2
aI3
aI4
aI6
aI7
aI8
aI13
aI15
aI17
aI18
aI19
aI20
aI23
aI25
aa(lp937
I1
aI2
aI6
aI9
aI10
aI11
aI12
aI13
aI14
aI16
aI19
aI20
aI23
aI24
aI25
aa(lp938
I2
aI3
aI4
aI6
aI7
aI10
aI11
aI13
aI15
aI16
aI17
aI18
aI19
aI20
aI25
aa(lp939
I1
aI4
aI5
aI6
aI7
aI9
aI10
aI11
aI15
aI16
aI18
aI19
aI20
aI21
aI25
aa(lp940
I2
aI3
aI4
aI6
aI7
aI9
aI13
aI14
aI16
aI17
aI18
aI19
aI20
aI24
aI25
aa(lp941
I1
aI2
aI3
aI4
aI5
aI7
aI8
aI9
aI10
aI11
aI15
aI16
aI18
aI23
aI25
aa(lp942
I1
aI3
aI4
aI5
aI6
aI7
aI11
aI12
aI13
aI18
aI19
aI20
aI21
aI22
aI24
aa(lp943
I3
aI4
aI5
aI6
aI9
aI10
aI12
aI13
aI14
aI15
aI17
aI18
aI21
aI22
aI23
aa(lp944
I1
aI8
aI9
aI10
aI11
aI12
aI13
aI14
aI16
aI17
aI18
aI19
aI21
aI24
aI25
aa(lp945
I2
aI3
aI4
aI5
aI6
aI9
aI11
aI13
aI18
aI19
aI20
aI21
aI23
aI24
aI25
aa(lp946
I1
aI7
aI8
aI9
aI10
aI14
aI16
aI17
aI18
aI19
aI20
aI21
aI22
aI24
aI25
aa(lp947
I1
aI2
aI3
aI5
aI7
aI9
aI10
aI11
aI12
aI15
aI16
aI18
aI20
aI22
aI24
aa(lp948
I1
aI2
aI5
aI6
aI8
aI9
aI11
aI13
aI16
aI17
aI18
aI19
aI21
aI22
aI24
aa(lp949
I1
aI6
aI7
aI8
aI9
aI10
aI11
aI12
aI13
aI14
aI15
aI16
aI17
aI21
aI23
aa(lp950
I2
aI4
aI5
aI7
aI8
aI9
aI12
aI13
aI14
aI17
aI18
aI19
aI20
aI21
aI25
aa(lp951
I3
aI7
aI8
aI9
aI10
aI13
aI14
aI15
aI17
aI19
aI20
aI21
aI22
aI23
aI25
aa(lp952
I1
aI3
aI4
aI6
aI8
aI11
aI12
aI14
aI17
aI18
aI19
aI21
aI22
aI23
aI25
aa(lp953
I1
aI2
aI5
aI6
aI7
aI9
aI10
aI12
aI13
aI14
aI15
aI16
aI18
aI21
aI24
aa(lp954
I3
aI5
aI6
aI8
aI10
aI11
aI12
aI13
aI14
aI16
aI18
aI20
aI23
aI24
aI25
aa(lp955
I1
aI2
aI4
aI5
aI7
aI9
aI10
aI11
aI12
aI13
aI14
aI16
aI18
aI21
aI24
aa(lp956
I2
aI3
aI4
aI5
aI6
aI8
aI11
aI12
aI13
aI16
aI17
aI18
aI19
aI21
aI22
aa(lp957
I1
aI3
aI4
aI5
aI6
aI7
aI8
aI13
aI15
aI16
aI21
aI22
aI23
aI24
aI25
aa(lp958
I1
aI4
aI5
aI6
aI9
aI12
aI13
aI14
aI16
aI17
aI19
aI20
aI21
aI22
aI24
aa(lp959
I2
aI5
aI6
aI9
aI11
aI12
aI14
aI16
aI19
aI20
aI21
aI22
aI23
aI24
aI25
aa(lp960
I1
aI2
aI3
aI4
aI6
aI7
aI10
aI12
aI14
aI16
aI17
aI18
aI20
aI21
aI24
aa(lp961
I1
aI2
aI3
aI4
aI5
aI7
aI9
aI11
aI12
aI15
aI18
aI20
aI21
aI22
aI25
aa(lp962
I1
aI4
aI6
aI8
aI9
aI11
aI13
aI14
aI15
aI17
aI20
aI21
aI22
aI23
aI25
aa(lp963
I3
aI4
aI6
aI7
aI9
aI10
aI11
aI14
aI15
aI16
aI17
aI18
aI19
aI23
aI24
aa(lp964
I1
aI2
aI3
aI4
aI7
aI9
aI10
aI11
aI15
aI17
aI18
aI19
aI20
aI21
aI23
aa(lp965
I3
aI4
aI8
aI9
aI10
aI11
aI13
aI14
aI15
aI16
aI18
aI19
aI21
aI22
aI24
aa(lp966
I2
aI3
aI4
aI5
aI6
aI7
aI8
aI10
aI11
aI12
aI17
aI19
aI21
aI22
aI25
aa(lp967
I2
aI3
aI4
aI6
aI8
aI9
aI10
aI11
aI16
aI17
aI20
aI21
aI22
aI23
aI25
aa(lp968
I2
aI3
aI4
aI5
aI7
aI9
aI11
aI13
aI14
aI16
aI18
aI19
aI20
aI21
aI25
aa(lp969
I1
aI3
aI4
aI5
aI9
aI10
aI11
aI12
aI16
aI17
aI18
aI19
aI20
aI22
aI24
aa(lp970
I1
aI3
aI6
aI8
aI9
aI10
aI12
aI15
aI17
aI18
aI19
aI20
aI21
aI23
aI24
aa(lp971
I3
aI4
aI5
aI6
aI7
aI9
aI10
aI11
aI18
aI20
aI21
aI22
aI23
aI24
aI25
aa(lp972
I1
aI3
aI6
aI8
aI11
aI13
aI14
aI15
aI16
aI20
aI21
aI22
aI23
aI24
aI25
aa(lp973
I1
aI2
aI3
aI5
aI6
aI8
aI11
aI14
aI15
aI18
aI20
aI21
aI22
aI24
aI25
aa(lp974
I1
aI4
aI6
aI7
aI8
aI9
aI10
aI12
aI14
aI15
aI17
aI19
aI21
aI22
aI24
aa(lp975
I1
aI2
aI4
aI6
aI7
aI10
aI11
aI12
aI13
aI14
aI16
aI17
aI19
aI20
aI24
aa(lp976
I1
aI2
aI3
aI4
aI6
aI7
aI10
aI11
aI13
aI14
aI19
aI21
aI23
aI24
aI25
aa(lp977
I1
aI2
aI6
aI7
aI8
aI10
aI11
aI13
aI14
aI17
aI18
aI20
aI22
aI23
aI24
aa(lp978
I3
aI4
aI5
aI6
aI7
aI8
aI9
aI11
aI12
aI13
aI14
aI15
aI16
aI18
aI25
aa(lp979
I2
aI5
aI6
aI7
aI8
aI9
aI10
aI14
aI16
aI19
aI21
aI22
aI23
aI24
aI25
aa(lp980
I1
aI2
aI6
aI7
aI8
aI9
aI10
aI11
aI12
aI13
aI17
aI20
aI21
aI22
aI24
aa(lp981
I1
aI2
aI3
aI4
aI6
aI8
aI9
aI12
aI16
aI18
aI19
aI21
aI22
aI24
aI25
aa(lp982
I1
aI3
aI4
aI5
aI6
aI7
aI9
aI13
aI14
aI17
aI18
aI20
aI21
aI23
aI24
aa(lp983
I2
aI4
aI5
aI6
aI7
aI8
aI10
aI11
aI14
aI15
aI16
aI18
aI19
aI21
aI25
aa(lp984
I2
aI4
aI8
aI9
aI10
aI11
aI12
aI13
aI15
aI20
aI21
aI22
aI23
aI24
aI25
aa(lp985
I3
aI4
aI6
aI7
aI9
aI12
aI13
aI14
aI17
aI18
aI21
aI22
aI23
aI24
aI25
aa(lp986
I1
aI2
aI5
aI7
aI11
aI13
aI14
aI15
aI16
aI18
aI20
aI21
aI22
aI23
aI24
aa(lp987
I2
aI4
aI5
aI6
aI7
aI9
aI11
aI12
aI13
aI15
aI18
aI19
aI20
aI22
aI23
aa(lp988
I1
aI3
aI5
aI7
aI9
aI11
aI12
aI13
aI15
aI16
aI17
aI19
aI20
aI24
aI25
aa(lp989
I3
aI4
aI6
aI8
aI9
aI10
aI13
aI14
aI15
aI17
aI18
aI19
aI22
aI23
aI24
aa(lp990
I1
aI5
aI6
aI7
aI8
aI10
aI11
aI12
aI13
aI15
aI16
aI19
aI20
aI22
aI24
aa(lp991
I1
aI2
aI5
aI6
aI7
aI9
aI12
aI14
aI15
aI17
aI18
aI21
aI22
aI24
aI25
aa(lp992
I1
aI3
aI4
aI5
aI7
aI8
aI9
aI10
aI11
aI13
aI15
aI17
aI19
aI20
aI24
aa(lp993
I2
aI4
aI5
aI7
aI9
aI10
aI12
aI14
aI17
aI20
aI21
aI22
aI23
aI24
aI25
aa(lp994
I3
aI5
aI7
aI8
aI9
aI11
aI12
aI13
aI14
aI15
aI16
aI18
aI22
aI23
aI25
aa(lp995
I1
aI2
aI3
aI4
aI7
aI8
aI9
aI12
aI13
aI14
aI17
aI20
aI22
aI23
aI24
aa(lp996
I2
aI3
aI4
aI6
aI7
aI9
aI13
aI16
aI17
aI18
aI20
aI21
aI23
aI24
aI25
aa(lp997
I2
aI4
aI5
aI7
aI9
aI10
aI12
aI15
aI16
aI17
aI18
aI19
aI22
aI23
aI24
aa(lp998
I1
aI2
aI3
aI4
aI5
aI9
aI11
aI12
aI14
aI17
aI19
aI20
aI21
aI22
aI23
aa(lp999
I1
aI2
aI5
aI6
aI7
aI8
aI10
aI12
aI13
aI14
aI15
aI16
aI18
aI21
aI24
aa(lp1000
I2
aI3
aI4
aI8
aI11
aI12
aI13
aI14
aI15
aI16
aI17
aI18
aI19
aI20
aI22
aa(lp1001
I5
aI6
aI7
aI8
aI10
aI11
aI12
aI13
aI14
aI17
aI19
aI20
aI21
aI23
aI25
aa(lp1002
I3
aI4
aI8
aI10
aI12
aI13
aI14
aI15
aI16
aI17
aI18
aI20
aI21
aI22
aI24
aa(lp1003
I1
aI2
aI3
aI6
aI8
aI10
aI12
aI14
aI16
aI17
aI19
aI20
aI21
aI23
aI25
aa(lp1004
I1
aI2
aI3
aI6
aI10
aI12
aI14
aI15
aI18
aI19
aI20
aI21
aI22
aI24
aI25
aa(lp1005
I1
aI5
aI7
aI9
aI10
aI12
aI14
aI15
aI16
aI18
aI19
aI20
aI21
aI22
aI24
aa(lp1006
I1
aI3
aI4
aI5
aI6
aI7
aI9
aI13
aI14
aI15
aI16
aI20
aI22
aI23
aI24
aa(lp1007
I1
aI2
aI3
aI6
aI7
aI9
aI10
aI11
aI12
aI18
aI20
aI22
aI23
aI24
aI25
aa(lp1008
I1
aI3
aI6
aI7
aI8
aI9
aI10
aI12
aI13
aI16
aI17
aI18
aI19
aI21
aI22
aa(lp1009
I2
aI4
aI6
aI9
aI10
aI11
aI12
aI14
aI15
aI17
aI18
aI19
aI20
aI22
aI24
aa(lp1010
I1
aI2
aI4
aI6
aI8
aI10
aI11
aI13
aI14
aI15
aI16
aI19
aI21
aI22
aI23
aa(lp1011
I1
aI3
aI4
aI5
aI7
aI9
aI10
aI13
aI15
aI17
aI18
aI19
aI23
aI24
aI25
aa(lp1012
I1
aI2
aI7
aI9
aI11
aI12
aI14
aI15
aI16
aI17
aI18
aI21
aI22
aI24
aI25
aa(lp1013
I1
aI2
aI3
aI4
aI5
aI7
aI10
aI11
aI13
aI17
aI18
aI19
aI20
aI21
aI23
aa(lp1014
I1
aI2
aI8
aI9
aI10
aI12
aI13
aI14
aI17
aI18
aI20
aI22
aI23
aI24
aI25
aa(lp1015
I1
aI2
aI3
aI5
aI6
aI7
aI8
aI13
aI15
aI16
aI17
aI18
aI20
aI21
aI23
aa(lp1016
I1
aI2
aI3
aI5
aI6
aI11
aI12
aI14
aI15
aI16
aI19
aI20
aI21
aI23
aI25
aa(lp1017
I1
aI2
aI3
aI4
aI8
aI9
aI10
aI11
aI12
aI15
aI16
aI17
aI19
aI21
aI23
aa(lp1018
I2
aI4
aI5
aI7
aI8
aI10
aI11
aI12
aI14
aI16
aI17
aI18
aI19
aI22
aI24
aa(lp1019
I1
aI2
aI3
aI4
aI5
aI7
aI8
aI10
aI12
aI17
aI18
aI20
aI21
aI22
aI23
aa(lp1020
I2
aI3
aI5
aI7
aI9
aI11
aI12
aI13
aI15
aI16
aI18
aI19
aI20
aI21
aI24
aa(lp1021
I1
aI5
aI6
aI9
aI10
aI13
aI14
aI15
aI16
aI18
aI19
aI20
aI21
aI22
aI23
aa(lp1022
I1
aI3
aI4
aI5
aI7
aI8
aI9
aI10
aI14
aI16
aI18
aI21
aI22
aI24
aI25
aa(lp1023
I1
aI2
aI3
aI6
aI7
aI8
aI9
aI11
aI13
aI14
aI16
aI18
aI21
aI22
aI23
aa(lp1024
I1
aI2
aI4
aI7
aI9
aI10
aI11
aI12
aI13
aI14
aI17
aI20
aI21
aI22
aI23
aa(lp1025
I1
aI2
aI7
aI9
aI11
aI13
aI14
aI15
aI16
aI17
aI18
aI19
aI22
aI23
aI25
aa(lp1026
I1
aI5
aI6
aI7
aI11
aI12
aI14
aI15
aI16
aI18
aI19
aI20
aI21
aI23
aI24
aa(lp1027
I1
aI3
aI5
aI6
aI8
aI9
aI10
aI12
aI14
aI15
aI16
aI19
aI21
aI23
aI25
aa(lp1028
I4
aI5
aI6
aI7
aI8
aI9
aI10
aI11
aI16
aI17
aI19
aI20
aI23
aI24
aI25
aa(lp1029
I1
aI2
aI3
aI6
aI8
aI11
aI13
aI14
aI17
aI18
aI19
aI22
aI23
aI24
aI25
aa(lp1030
I1
aI2
aI3
aI4
aI8
aI9
aI10
aI11
aI15
aI16
aI17
aI18
aI19
aI20
aI23
aa(lp1031
I1
aI2
aI4
aI5
aI6
aI9
aI11
aI12
aI14
aI15
aI17
aI19
aI20
aI22
aI24
aa(lp1032
I1
aI2
aI3
aI4
aI6
aI8
aI10
aI11
aI13
aI14
aI16
aI17
aI18
aI20
aI23
aa(lp1033
I3
aI4
aI6
aI7
aI8
aI12
aI13
aI14
aI16
aI17
aI18
aI21
aI22
aI23
aI24
aa(lp1034
I2
aI3
aI4
aI6
aI8
aI10
aI12
aI13
aI14
aI17
aI18
aI19
aI20
aI21
aI23
aa(lp1035
I4
aI6
aI7
aI9
aI12
aI13
aI14
aI15
aI18
aI19
aI20
aI21
aI22
aI23
aI25
aa(lp1036
I4
aI5
aI7
aI9
aI10
aI11
aI12
aI14
aI17
aI18
aI19
aI20
aI21
aI22
aI24
aa(lp1037
I1
aI5
aI6
aI9
aI10
aI11
aI12
aI15
aI17
aI18
aI20
aI21
aI23
aI24
aI25
aa(lp1038
I2
aI6
aI7
aI8
aI9
aI10
aI13
aI16
aI17
aI18
aI19
aI20
aI21
aI24
aI25
aa(lp1039
I1
aI2
aI3
aI8
aI9
aI12
aI13
aI14
aI15
aI18
aI19
aI20
aI21
aI22
aI24
aa(lp1040
I1
aI2
aI4
aI6
aI8
aI9
aI10
aI12
aI13
aI16
aI20
aI21
aI22
aI23
aI25
aa(lp1041
I1
aI3
aI5
aI7
aI10
aI12
aI13
aI15
aI17
aI19
aI20
aI21
aI23
aI24
aI25
aa(lp1042
I1
aI3
aI6
aI7
aI8
aI9
aI10
aI11
aI14
aI15
aI16
aI19
aI21
aI22
aI24
aa(lp1043
I1
aI2
aI6
aI7
aI8
aI9
aI10
aI11
aI12
aI14
aI17
aI18
aI19
aI24
aI25
aa(lp1044
I2
aI4
aI5
aI6
aI7
aI8
aI10
aI11
aI12
aI15
aI17
aI20
aI23
aI24
aI25
aa(lp1045
I2
aI3
aI5
aI6
aI9
aI11
aI15
aI16
aI17
aI20
aI21
aI22
aI23
aI24
aI25
aa(lp1046
I3
aI4
aI5
aI7
aI8
aI11
aI12
aI13
aI14
aI18
aI20
aI21
aI22
aI23
aI25
aa(lp1047
I4
aI7
aI8
aI9
aI10
aI11
aI12
aI15
aI16
aI17
aI20
aI21
aI22
aI24
aI25
aa(lp1048
I1
aI2
aI3
aI5
aI6
aI7
aI9
aI10
aI15
aI16
aI17
aI18
aI20
aI21
aI25
aa(lp1049
I2
aI4
aI5
aI9
aI12
aI14
aI16
aI17
aI18
aI19
aI20
aI21
aI22
aI23
aI25
aa(lp1050
I1
aI4
aI6
aI7
aI10
aI12
aI13
aI15
aI16
aI17
aI19
aI21
aI22
aI24
aI25
aa(lp1051
I2
aI3
aI4
aI7
aI8
aI10
aI11
aI13
aI14
aI16
aI18
aI20
aI21
aI23
aI25
aa(lp1052
I1
aI3
aI4
aI5
aI6
aI8
aI10
aI11
aI16
aI17
aI18
aI20
aI21
aI23
aI24
aa(lp1053
I1
aI2
aI3
aI4
aI6
aI11
aI12
aI13
aI14
aI15
aI17
aI18
aI22
aI23
aI24
aa(lp1054
I2
aI3
aI4
aI5
aI6
aI9
aI12
aI13
aI15
aI16
aI17
aI18
aI20
aI24
aI25
aa(lp1055
I1
aI2
aI3
aI7
aI8
aI9
aI10
aI12
aI13
aI14
aI18
aI22
aI23
aI24
aI25
aa(lp1056
I2
aI4
aI5
aI6
aI8
aI9
aI10
aI11
aI14
aI15
aI18
aI19
aI21
aI22
aI23
aa(lp1057
I1
aI4
aI6
aI7
aI8
aI9
aI11
aI13
aI14
aI16
aI19
aI20
aI21
aI23
aI25
aa(lp1058
I4
aI5
aI6
aI7
aI9
aI12
aI13
aI16
aI17
aI18
aI20
aI21
aI22
aI24
aI25
aa(lp1059
I1
aI2
aI3
aI5
aI7
aI8
aI11
aI14
aI15
aI16
aI19
aI20
aI21
aI22
aI24
aa(lp1060
I1
aI2
aI4
aI5
aI7
aI8
aI13
aI14
aI15
aI16
aI17
aI20
aI21
aI22
aI23
aa(lp1061
I2
aI3
aI5
aI7
aI8
aI9
aI12
aI14
aI15
aI16
aI19
aI21
aI22
aI23
aI24
aa(lp1062
I3
aI4
aI5
aI7
aI8
aI9
aI11
aI13
aI15
aI16
aI17
aI19
aI20
aI23
aI25
aa(lp1063
I2
aI5
aI6
aI7
aI10
aI12
aI13
aI14
aI15
aI16
aI20
aI21
aI22
aI24
aI25
aa(lp1064
I2
aI3
aI7
aI8
aI9
aI10
aI11
aI14
aI15
aI16
aI18
aI19
aI21
aI24
aI25
aa(lp1065
I2
aI3
aI4
aI5
aI6
aI12
aI14
aI15
aI17
aI19
aI20
aI21
aI22
aI24
aI25
aa(lp1066
I2
aI4
aI5
aI6
aI10
aI11
aI14
aI16
aI17
aI18
aI19
aI21
aI22
aI23
aI24
aa(lp1067
I1
aI2
aI3
aI4
aI5
aI7
aI10
aI11
aI13
aI14
aI15
aI17
aI21
aI22
aI25
aa(lp1068
I2
aI6
aI7
aI10
aI11
aI13
aI14
aI15
aI16
aI17
aI18
aI20
aI21
aI22
aI24
aa(lp1069
I1
aI3
aI4
aI8
aI10
aI11
aI12
aI13
aI15
aI16
aI17
aI22
aI23
aI24
aI25
aa(lp1070
I4
aI9
aI10
aI11
aI12
aI13
aI16
aI18
aI19
aI20
aI21
aI22
aI23
aI24
aI25
aa(lp1071
I2
aI3
aI4
aI5
aI6
aI10
aI11
aI12
aI13
aI14
aI16
aI17
aI21
aI22
aI24
aa(lp1072
I1
aI2
aI3
aI4
aI5
aI7
aI9
aI13
aI14
aI15
aI17
aI20
aI22
aI23
aI25
aa(lp1073
I1
aI3
aI4
aI5
aI6
aI7
aI13
aI16
aI17
aI19
aI20
aI21
aI22
aI23
aI24
aa(lp1074
I1
aI4
aI7
aI8
aI9
aI10
aI11
aI13
aI17
aI20
aI21
aI22
aI23
aI24
aI25
aa(lp1075
I1
aI2
aI6
aI9
aI10
aI12
aI15
aI16
aI17
aI18
aI21
aI22
aI23
aI24
aI25
aa(lp1076
I4
aI9
aI10
aI11
aI12
aI13
aI14
aI15
aI16
aI17
aI18
aI20
aI21
aI22
aI25
aa(lp1077
I1
aI2
aI5
aI6
aI7
aI8
aI10
aI12
aI13
aI14
aI15
aI19
aI20
aI21
aI24
aa(lp1078
I2
aI4
aI5
aI6
aI7
aI9
aI10
aI11
aI13
aI17
aI18
aI21
aI23
aI24
aI25
aa(lp1079
I5
aI6
aI7
aI8
aI11
aI13
aI14
aI15
aI16
aI17
aI19
aI20
aI21
aI22
aI24
aa(lp1080
I2
aI3
aI5
aI6
aI10
aI11
aI12
aI14
aI15
aI16
aI17
aI21
aI22
aI23
aI25
aa(lp1081
I1
aI5
aI6
aI7
aI10
aI12
aI13
aI14
aI15
aI16
aI18
aI19
aI21
aI22
aI23
aa(lp1082
I3
aI7
aI9
aI10
aI11
aI13
aI15
aI16
aI17
aI18
aI19
aI21
aI22
aI23
aI24
aa(lp1083
I1
aI2
aI3
aI4
aI6
aI11
aI13
aI16
aI17
aI18
aI20
aI21
aI22
aI23
aI24
aa(lp1084
I1
aI2
aI3
aI4
aI5
aI6
aI7
aI9
aI10
aI13
aI17
aI18
aI21
aI24
aI25
aa(lp1085
I3
aI6
aI7
aI8
aI9
aI10
aI14
aI16
aI18
aI19
aI21
aI22
aI23
aI24
aI25
aa(lp1086
I2
aI4
aI5
aI7
aI10
aI12
aI13
aI15
aI17
aI18
aI19
aI21
aI22
aI23
aI24
aa(lp1087
I2
aI3
aI4
aI6
aI9
aI12
aI13
aI16
aI17
aI18
aI19
aI20
aI21
aI23
aI24
aa(lp1088
I1
aI2
aI3
aI5
aI6
aI7
aI9
aI10
aI12
aI13
aI18
aI19
aI20
aI22
aI23
aa(lp1089
I2
aI3
aI4
aI6
aI8
aI12
aI13
aI14
aI15
aI16
aI19
aI21
aI22
aI23
aI24
aa(lp1090
I3
aI5
aI8
aI9
aI10
aI11
aI13
aI14
aI15
aI17
aI18
aI20
aI21
aI22
aI24
aa(lp1091
I2
aI4
aI5
aI6
aI7
aI9
aI10
aI12
aI13
aI14
aI16
aI20
aI23
aI24
aI25
aa(lp1092
I4
aI5
aI8
aI9
aI11
aI12
aI13
aI14
aI15
aI18
aI19
aI20
aI22
aI24
aI25
aa(lp1093
I1
aI2
aI4
aI5
aI6
aI9
aI10
aI11
aI13
aI18
aI21
aI22
aI23
aI24
aI25
aa(lp1094
I1
aI2
aI3
aI4
aI5
aI6
aI8
aI9
aI10
aI12
aI14
aI16
aI19
aI22
aI25
aa(lp1095
I2
aI3
aI5
aI6
aI7
aI9
aI15
aI16
aI17
aI18
aI21
aI22
aI23
aI24
aI25
aa(lp1096
I1
aI2
aI4
aI7
aI8
aI10
aI12
aI13
aI14
aI15
aI20
aI21
aI22
aI23
aI25
aa(lp1097
I4
aI5
aI6
aI9
aI10
aI12
aI14
aI15
aI16
aI18
aI19
aI20
aI23
aI24
aI25
aa(lp1098
I3
aI4
aI5
aI7
aI8
aI10
aI11
aI12
aI14
aI15
aI16
aI18
aI23
aI24
aI25
aa(lp1099
I2
aI3
aI6
aI7
aI8
aI11
aI12
aI13
aI14
aI16
aI21
aI22
aI23
aI24
aI25
aa(lp1100
I5
aI6
aI7
aI9
aI10
aI11
aI12
aI14
aI15
aI16
aI18
aI19
aI20
aI23
aI24
aa(lp1101
I1
aI2
aI3
aI6
aI9
aI10
aI11
aI13
aI15
aI17
aI18
aI19
aI23
aI24
aI25
aa(lp1102
I2
aI3
aI5
aI6
aI8
aI12
aI14
aI15
aI18
aI19
aI20
aI21
aI22
aI23
aI24
aa(lp1103
I2
aI4
aI5
aI7
aI9
aI10
aI11
aI12
aI14
aI16
aI18
aI20
aI21
aI22
aI25
aa(lp1104
I2
aI5
aI6
aI8
aI9
aI11
aI13
aI14
aI15
aI16
aI18
aI19
aI21
aI22
aI23
aa(lp1105
I1
aI2
aI4
aI6
aI7
aI9
aI11
aI13
aI15
aI17
aI18
aI20
aI23
aI24
aI25
aa(lp1106
I2
aI3
aI4
aI9
aI10
aI11
aI12
aI13
aI14
aI15
aI16
aI19
aI21
aI23
aI24
aa(lp1107
I1
aI2
aI4
aI8
aI9
aI10
aI11
aI12
aI14
aI16
aI18
aI19
aI20
aI21
aI24
aa(lp1108
I1
aI2
aI4
aI5
aI7
aI8
aI9
aI12
aI13
aI14
aI17
aI21
aI22
aI24
aI25
aa(lp1109
I1
aI4
aI5
aI6
aI7
aI8
aI9
aI10
aI11
aI17
aI18
aI19
aI20
aI21
aI25
aa(lp1110
I1
aI2
aI3
aI4
aI6
aI9
aI10
aI15
aI17
aI18
aI19
aI20
aI22
aI24
aI25
aa(lp1111
I2
aI3
aI4
aI6
aI9
aI11
aI12
aI13
aI14
aI15
aI16
aI22
aI23
aI24
aI25
aa(lp1112
I1
aI2
aI3
aI6
aI7
aI8
aI12
aI13
aI15
aI16
aI17
aI18
aI20
aI22
aI24
aa(lp1113
I1
aI3
aI6
aI7
aI9
aI12
aI13
aI14
aI15
aI17
aI19
aI20
aI22
aI24
aI25
aa(lp1114
I1
aI2
aI3
aI4
aI5
aI6
aI8
aI10
aI11
aI12
aI15
aI18
aI19
aI20
aI22
aa(lp1115
I2
aI3
aI7
aI8
aI9
aI10
aI11
aI12
aI17
aI18
aI20
aI22
aI23
aI24
aI25
aa(lp1116
I1
aI2
aI3
aI4
aI5
aI6
aI9
aI12
aI15
aI17
aI18
aI21
aI22
aI24
aI25
aa(lp1117
I1
aI2
aI3
aI5
aI7
aI8
aI11
aI12
aI13
aI14
aI15
aI16
aI19
aI21
aI23
aa(lp1118
I1
aI2
aI5
aI6
aI8
aI10
aI11
aI13
aI14
aI15
aI20
aI21
aI23
aI24
aI25
aa(lp1119
I1
aI2
aI3
aI5
aI6
aI7
aI8
aI10
aI12
aI14
aI15
aI17
aI18
aI20
aI23
aa(lp1120
I2
aI4
aI5
aI6
aI8
aI9
aI10
aI12
aI13
aI14
aI16
aI17
aI18
aI19
aI24
aa(lp1121
I1
aI2
aI4
aI5
aI6
aI8
aI9
aI11
aI12
aI17
aI18
aI20
aI22
aI23
aI25
aa(lp1122
I2
aI3
aI7
aI10
aI11
aI12
aI13
aI14
aI16
aI19
aI20
aI21
aI23
aI24
aI25
aa(lp1123
I2
aI4
aI6
aI7
aI8
aI10
aI11
aI13
aI15
aI16
aI17
aI19
aI22
aI23
aI24
aa(lp1124
I1
aI3
aI4
aI5
aI6
aI8
aI10
aI12
aI13
aI15
aI19
aI21
aI22
aI24
aI25
aa(lp1125
I1
aI3
aI4
aI6
aI9
aI11
aI12
aI13
aI15
aI16
aI17
aI18
aI21
aI22
aI25
aa(lp1126
I3
aI5
aI6
aI7
aI8
aI12
aI13
aI16
aI17
aI18
aI19
aI22
aI23
aI24
aI25
aa(lp1127
I1
aI3
aI4
aI6
aI8
aI9
aI11
aI13
aI14
aI15
aI16
aI17
aI22
aI23
aI24
aa(lp1128
I1
aI2
aI3
aI4
aI6
aI7
aI10
aI11
aI12
aI14
aI16
aI17
aI20
aI24
aI25
aa(lp1129
I2
aI3
aI4
aI5
aI7
aI8
aI12
aI13
aI16
aI17
aI18
aI19
aI21
aI22
aI23
aa(lp1130
I1
aI2
aI5
aI8
aI10
aI11
aI12
aI13
aI14
aI15
aI17
aI20
aI22
aI24
aI25
aa(lp1131
I2
aI3
aI4
aI6
aI12
aI14
aI15
aI16
aI17
aI19
aI20
aI21
aI22
aI24
aI25
aa(lp1132
I1
aI2
aI6
aI7
aI8
aI9
aI11
aI12
aI13
aI14
aI17
aI21
aI22
aI23
aI24
aa(lp1133
I2
aI4
aI5
aI6
aI7
aI8
aI9
aI10
aI12
aI13
aI14
aI16
aI18
aI24
aI25
aa(lp1134
I1
aI2
aI4
aI8
aI10
aI11
aI12
aI13
aI14
aI15
aI17
aI18
aI20
aI23
aI25
aa(lp1135
I3
aI4
aI5
aI8
aI9
aI10
aI12
aI15
aI16
aI17
aI18
aI19
aI23
aI24
aI25
aa(lp1136
I1
aI2
aI5
aI6
aI7
aI9
aI10
aI11
aI15
aI17
aI18
aI19
aI21
aI22
aI24
aa(lp1137
I2
aI4
aI5
aI7
aI8
aI9
aI10
aI11
aI12
aI15
aI19
aI20
aI21
aI23
aI25
aa(lp1138
I1
aI2
aI3
aI5
aI6
aI7
aI10
aI11
aI13
aI15
aI16
aI18
aI20
aI21
aI22
aa(lp1139
I1
aI2
aI3
aI6
aI11
aI13
aI14
aI15
aI16
aI17
aI18
aI19
aI21
aI22
aI25
aa(lp1140
I3
aI4
aI5
aI6
aI7
aI8
aI10
aI15
aI18
aI19
aI20
aI21
aI23
aI24
aI25
aa(lp1141
I5
aI6
aI9
aI10
aI11
aI12
aI13
aI15
aI16
aI17
aI18
aI22
aI23
aI24
aI25
aa(lp1142
I2
aI4
aI7
aI8
aI9
aI10
aI12
aI13
aI15
aI16
aI19
aI20
aI22
aI23
aI24
aa(lp1143
I1
aI3
aI4
aI6
aI10
aI11
aI12
aI13
aI14
aI16
aI17
aI18
aI23
aI24
aI25
aa(lp1144
I2
aI3
aI4
aI6
aI7
aI8
aI10
aI13
aI14
aI17
aI18
aI19
aI23
aI24
aI25
aa(lp1145
I3
aI4
aI5
aI6
aI8
aI9
aI11
aI13
aI14
aI15
aI16
aI17
aI18
aI23
aI24
aa(lp1146
I2
aI3
aI4
aI5
aI7
aI11
aI13
aI15
aI17
aI18
aI19
aI21
aI22
aI24
aI25
aa(lp1147
I1
aI6
aI7
aI8
aI9
aI11
aI12
aI14
aI15
aI16
aI18
aI19
aI20
aI22
aI25
aa(lp1148
I1
aI3
aI4
aI5
aI6
aI9
aI10
aI13
aI14
aI16
aI17
aI18
aI19
aI20
aI24
aa(lp1149
I1
aI2
aI3
aI6
aI7
aI8
aI10
aI12
aI15
aI17
aI18
aI19
aI21
aI22
aI23
aa(lp1150
I5
aI7
aI8
aI9
aI11
aI12
aI13
aI14
aI15
aI17
aI18
aI20
aI22
aI23
aI24
aa(lp1151
I1
aI3
aI7
aI9
aI10
aI11
aI12
aI14
aI15
aI16
aI20
aI21
aI22
aI24
aI25
aa(lp1152
I3
aI4
aI5
aI7
aI8
aI9
aI10
aI12
aI16
aI18
aI19
aI20
aI21
aI22
aI25
aa(lp1153
I1
aI2
aI3
aI5
aI6
aI8
aI9
aI12
aI13
aI15
aI18
aI19
aI20
aI24
aI25
aa(lp1154
I1
aI3
aI4
aI5
aI10
aI11
aI13
aI15
aI16
aI17
aI19
aI21
aI23
aI24
aI25
aa(lp1155
I1
aI2
aI3
aI4
aI8
aI9
aI12
aI13
aI15
aI16
aI18
aI19
aI22
aI24
aI25
aa(lp1156
I1
aI3
aI4
aI6
aI7
aI11
aI12
aI13
aI14
aI15
aI17
aI21
aI22
aI24
aI25
aa(lp1157
I2
aI4
aI5
aI6
aI7
aI8
aI11
aI12
aI13
aI15
aI16
aI18
aI21
aI22
aI24
aa(lp1158
I2
aI3
aI5
aI7
aI10
aI13
aI14
aI15
aI16
aI17
aI19
aI20
aI22
aI24
aI25
aa(lp1159
I1
aI2
aI3
aI4
aI6
aI8
aI9
aI14
aI15
aI16
aI17
aI22
aI23
aI24
aI25
aa(lp1160
I2
aI4
aI5
aI6
aI7
aI8
aI10
aI11
aI15
aI16
aI17
aI18
aI21
aI22
aI25
aa(lp1161
I1
aI2
aI4
aI5
aI6
aI8
aI10
aI11
aI15
aI17
aI18
aI19
aI22
aI24
aI25
aa(lp1162
I1
aI3
aI4
aI7
aI9
aI11
aI13
aI15
aI18
aI19
aI20
aI21
aI23
aI24
aI25
aa(lp1163
I2
aI6
aI7
aI9
aI11
aI12
aI13
aI14
aI16
aI17
aI19
aI20
aI21
aI23
aI24
aa(lp1164
I3
aI4
aI5
aI8
aI10
aI11
aI13
aI15
aI17
aI20
aI21
aI22
aI23
aI24
aI25
aa(lp1165
I1
aI2
aI3
aI5
aI8
aI9
aI10
aI12
aI15
aI17
aI18
aI19
aI21
aI22
aI25
aa(lp1166
I2
aI4
aI5
aI6
aI9
aI10
aI12
aI14
aI15
aI17
aI18
aI19
aI20
aI21
aI24
aa(lp1167
I1
aI2
aI4
aI5
aI7
aI8
aI9
aI11
aI12
aI14
aI15
aI16
aI18
aI21
aI23
aa(lp1168
I1
aI3
aI4
aI5
aI7
aI8
aI9
aI10
aI11
aI13
aI16
aI19
aI23
aI24
aI25
aa(lp1169
I2
aI3
aI4
aI7
aI8
aI9
aI12
aI15
aI16
aI17
aI18
aI21
aI22
aI24
aI25
aa(lp1170
I1
aI2
aI4
aI7
aI8
aI10
aI13
aI15
aI16
aI18
aI19
aI20
aI21
aI22
aI25
aa(lp1171
I1
aI7
aI8
aI11
aI12
aI13
aI14
aI15
aI16
aI17
aI18
aI20
aI21
aI22
aI23
aa(lp1172
I2
aI6
aI8
aI9
aI10
aI11
aI12
aI13
aI14
aI16
aI19
aI20
aI23
aI24
aI25
aa(lp1173
I1
aI2
aI4
aI5
aI7
aI8
aI9
aI11
aI14
aI16
aI18
aI19
aI20
aI21
aI22
aa(lp1174
I1
aI2
aI3
aI5
aI6
aI8
aI9
aI10
aI11
aI13
aI15
aI17
aI18
aI19
aI23
aa(lp1175
I1
aI3
aI4
aI8
aI10
aI12
aI13
aI14
aI15
aI19
aI20
aI21
aI23
aI24
aI25
aa(lp1176
I2
aI3
aI5
aI7
aI10
aI11
aI12
aI13
aI15
aI16
aI18
aI19
aI20
aI23
aI25
aa(lp1177
I2
aI3
aI5
aI6
aI8
aI9
aI10
aI11
aI12
aI16
aI17
aI20
aI22
aI23
aI25
aa(lp1178
I1
aI4
aI7
aI8
aI9
aI11
aI12
aI16
aI17
aI18
aI19
aI20
aI21
aI23
aI24
aa(lp1179
I1
aI2
aI3
aI5
aI6
aI7
aI8
aI9
aI13
aI15
aI18
aI19
aI20
aI21
aI25
aa(lp1180
I1
aI2
aI6
aI7
aI8
aI9
aI10
aI11
aI13
aI14
aI15
aI19
aI20
aI22
aI23
aa(lp1181
I3
aI4
aI5
aI6
aI7
aI8
aI9
aI11
aI13
aI14
aI20
aI21
aI22
aI23
aI24
aa(lp1182
I3
aI6
aI7
aI8
aI10
aI12
aI13
aI16
aI18
aI19
aI20
aI21
aI22
aI24
aI25
aa(lp1183
I1
aI3
aI4
aI9
aI11
aI13
aI14
aI15
aI16
aI18
aI19
aI20
aI22
aI24
aI25
aa(lp1184
I2
aI4
aI6
aI7
aI10
aI11
aI12
aI14
aI16
aI17
aI18
aI19
aI20
aI21
aI25
aa(lp1185
I3
aI5
aI6
aI7
aI9
aI13
aI14
aI16
aI18
aI19
aI21
aI22
aI23
aI24
aI25
aa(lp1186
I1
aI2
aI4
aI5
aI6
aI9
aI11
aI14
aI15
aI16
aI18
aI20
aI22
aI23
aI24
aa(lp1187
I1
aI2
aI4
aI7
aI8
aI10
aI11
aI12
aI14
aI16
aI19
aI21
aI22
aI23
aI25
aa(lp1188
I1
aI2
aI4
aI5
aI6
aI8
aI10
aI12
aI13
aI14
aI18
aI20
aI22
aI23
aI24
aa(lp1189
I3
aI4
aI5
aI8
aI9
aI12
aI13
aI14
aI15
aI17
aI18
aI19
aI20
aI21
aI25
aa(lp1190
I2
aI3
aI4
aI6
aI9
aI10
aI11
aI14
aI15
aI16
aI17
aI21
aI22
aI23
aI25
aa(lp1191
I1
aI2
aI3
aI5
aI7
aI10
aI12
aI13
aI14
aI16
aI17
aI18
aI22
aI24
aI25
aa(lp1192
I1
aI2
aI3
aI4
aI5
aI6
aI9
aI11
aI12
aI13
aI15
aI16
aI19
aI20
aI21
aa(lp1193
I1
aI4
aI7
aI8
aI9
aI10
aI13
aI14
aI15
aI18
aI19
aI20
aI22
aI23
aI25
aa(lp1194
I2
aI4
aI8
aI9
aI10
aI12
aI15
aI16
aI17
aI18
aI19
aI22
aI23
aI24
aI25
aa(lp1195
I1
aI5
aI6
aI9
aI10
aI11
aI12
aI14
aI15
aI17
aI18
aI19
aI20
aI22
aI25
aa(lp1196
I1
aI2
aI4
aI6
aI7
aI8
aI9
aI11
aI12
aI16
aI17
aI18
aI19
aI20
aI23
aa(lp1197
I1
aI4
aI5
aI6
aI7
aI8
aI11
aI13
aI14
aI16
aI17
aI18
aI20
aI24
aI25
aa(lp1198
I1
aI3
aI4
aI6
aI7
aI9
aI10
aI11
aI15
aI17
aI20
aI21
aI22
aI23
aI25
aa(lp1199
I1
aI2
aI3
aI4
aI5
aI6
aI10
aI14
aI15
aI16
aI19
aI21
aI22
aI24
aI25
aa(lp1200
I3
aI4
aI5
aI6
aI7
aI8
aI10
aI11
aI12
aI14
aI15
aI16
aI22
aI24
aI25
aa(lp1201
I5
aI6
aI9
aI10
aI11
aI14
aI16
aI18
aI19
aI20
aI21
aI22
aI23
aI24
aI25
aa(lp1202
I2
aI3
aI4
aI8
aI10
aI13
aI14
aI16
aI17
aI18
aI19
aI20
aI23
aI24
aI25
aa(lp1203
I1
aI2
aI3
aI5
aI6
aI11
aI12
aI13
aI14
aI15
aI17
aI22
aI23
aI24
aI25
aa(lp1204
I1
aI2
aI5
aI7
aI8
aI9
aI12
aI13
aI15
aI16
aI19
aI20
aI21
aI22
aI23
aa(lp1205
I1
aI3
aI6
aI8
aI9
aI11
aI12
aI14
aI17
aI18
aI20
aI21
aI22
aI24
aI25
aa(lp1206
I1
aI3
aI5
aI7
aI10
aI11
aI13
aI14
aI15
aI18
aI21
aI22
aI23
aI24
aI25
aa(lp1207
I1
aI3
aI4
aI7
aI9
aI10
aI11
aI12
aI13
aI14
aI15
aI18
aI19
aI21
aI24
aa(lp1208
I1
aI2
aI3
aI4
aI5
aI10
aI11
aI14
aI15
aI18
aI19
aI20
aI22
aI24
aI25
aa(lp1209
I3
aI4
aI5
aI7
aI8
aI9
aI10
aI11
aI14
aI15
aI16
aI18
aI19
aI20
aI24
aa(lp1210
I1
aI2
aI4
aI8
aI10
aI11
aI13
aI15
aI16
aI18
aI19
aI20
aI21
aI22
aI25
aa(lp1211
I1
aI2
aI3
aI5
aI7
aI10
aI11
aI12
aI13
aI15
aI16
aI17
aI20
aI23
aI24
aa(lp1212
I1
aI2
aI3
aI5
aI6
aI7
aI8
aI9
aI10
aI15
aI16
aI17
aI18
aI20
aI24
aa(lp1213
I2
aI3
aI5
aI6
aI7
aI8
aI9
aI10
aI14
aI17
aI18
aI20
aI23
aI24
aI25
aa(lp1214
I1
aI2
aI3
aI4
aI5
aI7
aI8
aI9
aI13
aI14
aI18
aI19
aI20
aI21
aI23
aa(lp1215
I3
aI7
aI9
aI11
aI12
aI13
aI14
aI15
aI16
aI17
aI18
aI20
aI21
aI22
aI24
aa(lp1216
I1
aI2
aI3
aI7
aI10
aI12
aI14
aI15
aI17
aI18
aI20
aI21
aI22
aI23
aI24
aa(lp1217
I1
aI3
aI6
aI7
aI8
aI9
aI10
aI11
aI12
aI13
aI17
aI19
aI20
aI24
aI25
aa(lp1218
I1
aI2
aI3
aI4
aI5
aI7
aI9
aI10
aI11
aI13
aI14
aI18
aI20
aI21
aI23
aa(lp1219
I2
aI3
aI4
aI5
aI6
aI8
aI9
aI10
aI14
aI16
aI19
aI20
aI22
aI23
aI25
aa(lp1220
I2
aI3
aI4
aI5
aI6
aI7
aI9
aI13
aI14
aI17
aI18
aI19
aI20
aI23
aI25
aa(lp1221
I2
aI3
aI4
aI6
aI9
aI10
aI12
aI14
aI15
aI18
aI19
aI21
aI22
aI23
aI24
aa(lp1222
I1
aI2
aI3
aI4
aI5
aI8
aI9
aI10
aI11
aI13
aI15
aI17
aI20
aI22
aI24
aa(lp1223
I2
aI6
aI7
aI8
aI9
aI10
aI13
aI14
aI16
aI17
aI18
aI20
aI21
aI22
aI23
aa(lp1224
I1
aI2
aI4
aI5
aI6
aI8
aI9
aI11
aI12
aI14
aI15
aI16
aI17
aI18
aI19
aa(lp1225
I2
aI3
aI5
aI7
aI11
aI13
aI14
aI15
aI17
aI18
aI20
aI21
aI23
aI24
aI25
aa(lp1226
I1
aI3
aI5
aI7
aI8
aI10
aI11
aI14
aI15
aI17
aI19
aI21
aI22
aI23
aI24
aa(lp1227
I1
aI2
aI7
aI8
aI9
aI10
aI11
aI12
aI13
aI14
aI17
aI19
aI21
aI22
aI25
aa(lp1228
I1
aI2
aI3
aI4
aI6
aI7
aI9
aI10
aI12
aI13
aI17
aI20
aI22
aI23
aI24
aa(lp1229
I1
aI2
aI3
aI5
aI6
aI7
aI8
aI13
aI14
aI17
aI19
aI20
aI22
aI24
aI25
aa(lp1230
I1
aI2
aI3
aI5
aI6
aI7
aI8
aI10
aI11
aI12
aI13
aI17
aI18
aI19
aI21
aa(lp1231
I1
aI3
aI4
aI5
aI7
aI8
aI12
aI13
aI15
aI16
aI18
aI20
aI21
aI22
aI25
aa(lp1232
I2
aI3
aI5
aI6
aI9
aI10
aI13
aI14
aI15
aI16
aI19
aI21
aI23
aI24
aI25
aa(lp1233
I1
aI4
aI5
aI9
aI10
aI13
aI14
aI15
aI16
aI17
aI18
aI19
aI22
aI23
aI25
aa(lp1234
I1
aI2
aI5
aI8
aI9
aI10
aI14
aI16
aI17
aI18
aI19
aI20
aI21
aI24
aI25
aa(lp1235
I1
aI2
aI3
aI4
aI6
aI9
aI10
aI11
aI12
aI13
aI15
aI17
aI18
aI20
aI24
aa(lp1236
I1
aI2
aI3
aI5
aI6
aI7
aI9
aI10
aI11
aI12
aI13
aI17
aI19
aI23
aI25
aa(lp1237
I3
aI5
aI6
aI7
aI8
aI9
aI10
aI12
aI13
aI14
aI18
aI21
aI22
aI24
aI25
aa(lp1238
I2
aI3
aI5
aI7
aI8
aI9
aI11
aI13
aI14
aI15
aI16
aI17
aI18
aI21
aI25
aa(lp1239
I5
aI6
aI8
aI9
aI10
aI11
aI12
aI13
aI14
aI15
aI16
aI18
aI20
aI22
aI24
aa(lp1240
I1
aI2
aI3
aI4
aI5
aI6
aI9
aI12
aI13
aI16
aI18
aI19
aI20
aI22
aI24
aa(lp1241
I1
aI4
aI5
aI8
aI9
aI10
aI11
aI12
aI13
aI15
aI17
aI20
aI22
aI24
aI25
aa(lp1242
I1
aI2
aI4
aI5
aI7
aI11
aI14
aI15
aI16
aI19
aI20
aI21
aI23
aI24
aI25
aa(lp1243
I1
aI2
aI4
aI5
aI6
aI8
aI12
aI13
aI14
aI15
aI16
aI17
aI22
aI24
aI25
aa(lp1244
I1
aI3
aI5
aI7
aI9
aI10
aI11
aI12
aI13
aI16
aI17
aI19
aI21
aI23
aI25
aa(lp1245
I2
aI3
aI4
aI5
aI6
aI8
aI9
aI11
aI15
aI16
aI17
aI18
aI19
aI21
aI25
aa(lp1246
I1
aI4
aI7
aI8
aI9
aI10
aI12
aI13
aI16
aI17
aI18
aI19
aI22
aI24
aI25
aa(lp1247
I2
aI3
aI7
aI8
aI9
aI11
aI15
aI16
aI17
aI18
aI19
aI20
aI23
aI24
aI25
aa(lp1248
I1
aI3
aI5
aI10
aI11
aI12
aI13
aI15
aI16
aI17
aI19
aI20
aI22
aI24
aI25
aa(lp1249
I3
aI4
aI5
aI6
aI9
aI12
aI13
aI14
aI15
aI18
aI19
aI20
aI22
aI24
aI25
aa(lp1250
I2
aI3
aI4
aI5
aI7
aI9
aI10
aI14
aI15
aI17
aI18
aI19
aI20
aI24
aI25
aa(lp1251
I2
aI6
aI7
aI8
aI9
aI10
aI14
aI15
aI16
aI17
aI19
aI20
aI21
aI23
aI25
aa(lp1252
I1
aI3
aI4
aI5
aI6
aI8
aI9
aI10
aI11
aI12
aI15
aI20
aI21
aI23
aI24
aa(lp1253
I1
aI2
aI3
aI5
aI6
aI7
aI11
aI15
aI16
aI18
aI20
aI22
aI23
aI24
aI25
aa(lp1254
I2
aI3
aI8
aI9
aI11
aI12
aI14
aI15
aI16
aI17
aI18
aI20
aI21
aI22
aI23
aa(lp1255
I1
aI2
aI4
aI6
aI7
aI9
aI10
aI13
aI14
aI16
aI18
aI20
aI21
aI23
aI25
aa(lp1256
I1
aI2
aI6
aI8
aI10
aI11
aI12
aI13
aI14
aI15
aI16
aI18
aI19
aI22
aI23
aa(lp1257
I1
aI2
aI5
aI6
aI8
aI10
aI11
aI12
aI13
aI14
aI16
aI19
aI20
aI22
aI25
aa(lp1258
I2
aI3
aI4
aI5
aI6
aI8
aI9
aI10
aI12
aI13
aI14
aI20
aI21
aI23
aI25
aa(lp1259
I2
aI5
aI8
aI9
aI10
aI13
aI14
aI16
aI17
aI18
aI19
aI20
aI22
aI23
aI25
aa(lp1260
I1
aI2
aI3
aI4
aI5
aI6
aI7
aI11
aI14
aI15
aI17
aI18
aI20
aI22
aI24
aa(lp1261
I1
aI4
aI5
aI7
aI10
aI12
aI15
aI16
aI17
aI18
aI19
aI20
aI21
aI22
aI25
aa(lp1262
I1
aI3
aI4
aI6
aI8
aI11
aI12
aI13
aI16
aI17
aI20
aI21
aI22
aI23
aI24
aa(lp1263
I3
aI4
aI5
aI8
aI9
aI10
aI11
aI12
aI13
aI16
aI18
aI20
aI22
aI23
aI25
aa(lp1264
I1
aI4
aI5
aI8
aI10
aI11
aI12
aI14
aI17
aI18
aI21
aI22
aI23
aI24
aI25
aa(lp1265
I1
aI2
aI3
aI4
aI7
aI11
aI13
aI14
aI15
aI16
aI19
aI22
aI23
aI24
aI25
aa(lp1266
I1
aI2
aI3
aI5
aI6
aI8
aI9
aI10
aI11
aI13
aI14
aI15
aI20
aI23
aI24
aa(lp1267
I2
aI3
aI5
aI6
aI7
aI9
aI11
aI12
aI13
aI15
aI16
aI17
aI18
aI22
aI25
aa(lp1268
I1
aI2
aI3
aI6
aI7
aI8
aI11
aI12
aI13
aI15
aI17
aI18
aI21
aI22
aI24
aa(lp1269
I1
aI4
aI5
aI7
aI8
aI11
aI13
aI14
aI16
aI17
aI18
aI20
aI21
aI22
aI23
aa(lp1270
I1
aI2
aI3
aI4
aI5
aI6
aI8
aI9
aI10
aI11
aI13
aI20
aI21
aI23
aI25
aa(lp1271
I1
aI2
aI4
aI6
aI8
aI9
aI11
aI12
aI13
aI14
aI17
aI18
aI23
aI24
aI25
aa(lp1272
I1
aI4
aI7
aI9
aI10
aI14
aI15
aI17
aI18
aI19
aI20
aI21
aI23
aI24
aI25
aa(lp1273
I1
aI3
aI5
aI6
aI8
aI11
aI12
aI13
aI14
aI15
aI18
aI19
aI20
aI22
aI24
aa(lp1274
I1
aI3
aI7
aI8
aI10
aI11
aI12
aI13
aI14
aI15
aI18
aI19
aI20
aI22
aI25
aa(lp1275
I3
aI6
aI7
aI8
aI10
aI11
aI13
aI14
aI15
aI16
aI17
aI18
aI20
aI23
aI25
aa(lp1276
I1
aI3
aI5
aI7
aI10
aI12
aI14
aI15
aI16
aI18
aI19
aI21
aI22
aI23
aI24
aa(lp1277
I1
aI2
aI3
aI4
aI6
aI9
aI10
aI12
aI13
aI15
aI17
aI18
aI21
aI22
aI25
aa(lp1278
I4
aI6
aI7
aI9
aI10
aI12
aI15
aI16
aI17
aI18
aI19
aI20
aI21
aI22
aI24
aa(lp1279
I1
aI3
aI4
aI7
aI8
aI9
aI11
aI12
aI13
aI14
aI16
aI18
aI19
aI21
aI23
aa(lp1280
I1
aI3
aI4
aI5
aI7
aI9
aI11
aI14
aI15
aI17
aI19
aI22
aI23
aI24
aI25
aa(lp1281
I1
aI3
aI5
aI6
aI8
aI9
aI12
aI13
aI15
aI19
aI21
aI22
aI23
aI24
aI25
aa(lp1282
I5
aI6
aI7
aI9
aI10
aI11
aI12
aI14
aI17
aI19
aI20
aI21
aI22
aI23
aI25
aa(lp1283
I2
aI6
aI7
aI8
aI9
aI10
aI11
aI12
aI13
aI15
aI16
aI17
aI18
aI22
aI23
aa(lp1284
I2
aI4
aI5
aI7
aI8
aI10
aI11
aI13
aI16
aI17
aI18
aI20
aI22
aI23
aI25
aa(lp1285
I1
aI2
aI6
aI7
aI10
aI11
aI12
aI15
aI16
aI17
aI18
aI20
aI22
aI24
aI25
aa(lp1286
I1
aI3
aI4
aI5
aI7
aI10
aI11
aI12
aI16
aI17
aI19
aI20
aI21
aI23
aI25
aa(lp1287
I3
aI4
aI5
aI6
aI9
aI11
aI13
aI17
aI18
aI19
aI21
aI22
aI23
aI24
aI25
aa(lp1288
I1
aI2
aI5
aI9
aI10
aI13
aI15
aI16
aI17
aI18
aI19
aI20
aI23
aI24
aI25
aa(lp1289
I1
aI2
aI5
aI7
aI8
aI11
aI13
aI15
aI16
aI17
aI18
aI20
aI22
aI24
aI25
aa(lp1290
I1
aI3
aI4
aI5
aI6
aI11
aI13
aI14
aI16
aI19
aI20
aI21
aI22
aI23
aI25
aa(lp1291
I1
aI6
aI7
aI8
aI10
aI11
aI12
aI13
aI15
aI16
aI18
aI19
aI20
aI21
aI24
aa(lp1292
I1
aI2
aI3
aI7
aI8
aI10
aI11
aI14
aI15
aI17
aI19
aI22
aI23
aI24
aI25
aa(lp1293
I1
aI2
aI7
aI8
aI9
aI10
aI11
aI12
aI13
aI15
aI17
aI18
aI20
aI22
aI24
aa(lp1294
I2
aI5
aI6
aI7
aI8
aI10
aI11
aI12
aI13
aI14
aI16
aI18
aI20
aI23
aI25
aa(lp1295
I3
aI6
aI9
aI10
aI11
aI12
aI13
aI14
aI15
aI17
aI18
aI19
aI23
aI24
aI25
aa(lp1296
I5
aI7
aI9
aI10
aI11
aI14
aI15
aI16
aI17
aI18
aI19
aI20
aI21
aI23
aI25
aa(lp1297
I1
aI2
aI5
aI6
aI7
aI8
aI9
aI10
aI11
aI12
aI16
aI17
aI18
aI19
aI22
aa(lp1298
I2
aI3
aI4
aI6
aI7
aI9
aI12
aI17
aI18
aI20
aI21
aI22
aI23
aI24
aI25
aa(lp1299
I1
aI3
aI5
aI7
aI8
aI11
aI13
aI17
aI18
aI19
aI20
aI21
aI22
aI23
aI25
aa(lp1300
I2
aI6
aI7
aI9
aI10
aI11
aI12
aI13
aI14
aI15
aI18
aI20
aI23
aI24
aI25
aa(lp1301
I1
aI2
aI3
aI4
aI6
aI7
aI9
aI10
aI14
aI16
aI17
aI19
aI22
aI24
aI25
aa(lp1302
I3
aI4
aI6
aI9
aI11
aI12
aI13
aI14
aI15
aI16
aI17
aI18
aI20
aI22
aI25
aa(lp1303
I1
aI5
aI8
aI9
aI10
aI11
aI13
aI14
aI15
aI16
aI18
aI19
aI20
aI22
aI23
aa(lp1304
I1
aI2
aI3
aI7
aI8
aI10
aI11
aI13
aI14
aI17
aI18
aI19
aI20
aI21
aI25
aa(lp1305
I2
aI3
aI4
aI5
aI6
aI7
aI8
aI11
aI12
aI13
aI15
aI17
aI20
aI23
aI25
aa(lp1306
I1
aI2
aI5
aI6
aI7
aI9
aI12
aI13
aI14
aI15
aI18
aI19
aI20
aI22
aI23
aa(lp1307
I3
aI4
aI6
aI8
aI9
aI10
aI12
aI13
aI14
aI15
aI16
aI18
aI20
aI21
aI23
aa(lp1308
I3
aI5
aI6
aI7
aI8
aI9
aI11
aI14
aI16
aI17
aI19
aI20
aI22
aI23
aI25
aa(lp1309
I2
aI4
aI5
aI6
aI8
aI10
aI12
aI13
aI14
aI16
aI18
aI19
aI20
aI24
aI25
aa(lp1310
I1
aI2
aI3
aI4
aI5
aI7
aI8
aI10
aI11
aI15
aI17
aI18
aI19
aI21
aI23
aa(lp1311
I2
aI3
aI5
aI6
aI8
aI10
aI11
aI12
aI14
aI15
aI17
aI18
aI20
aI23
aI25
aa(lp1312
I1
aI2
aI4
aI5
aI6
aI7
aI9
aI11
aI13
aI18
aI19
aI20
aI23
aI24
aI25
aa(lp1313
I1
aI4
aI8
aI10
aI11
aI13
aI15
aI16
aI17
aI20
aI21
aI22
aI23
aI24
aI25
aa(lp1314
I3
aI5
aI8
aI9
aI10
aI11
aI14
aI15
aI16
aI18
aI19
aI21
aI22
aI24
aI25
aa(lp1315
I1
aI2
aI3
aI4
aI5
aI8
aI10
aI11
aI12
aI14
aI16
aI18
aI19
aI23
aI25
aa(lp1316
I1
aI2
aI3
aI4
aI5
aI6
aI11
aI12
aI15
aI17
aI19
aI20
aI23
aI24
aI25
aa(lp1317
I1
aI3
aI5
aI7
aI8
aI9
aI10
aI11
aI14
aI16
aI20
aI22
aI23
aI24
aI25
aa(lp1318
I1
aI2
aI3
aI4
aI6
aI7
aI8
aI9
aI12
aI13
aI14
aI15
aI17
aI20
aI23
aa(lp1319
I3
aI5
aI6
aI8
aI9
aI10
aI11
aI13
aI14
aI15
aI17
aI19
aI22
aI23
aI25
aa(lp1320
I2
aI3
aI4
aI5
aI9
aI11
aI12
aI13
aI15
aI16
aI17
aI21
aI22
aI23
aI25
aa(lp1321
I2
aI3
aI4
aI6
aI7
aI9
aI10
aI11
aI13
aI14
aI18
aI19
aI20
aI23
aI24
aa(lp1322
I1
aI2
aI6
aI7
aI8
aI9
aI11
aI13
aI15
aI16
aI17
aI18
aI21
aI24
aI25
aa(lp1323
I1
aI4
aI5
aI6
aI9
aI10
aI11
aI13
aI14
aI17
aI19
aI20
aI21
aI22
aI23
aa(lp1324
I1
aI4
aI5
aI6
aI7
aI8
aI10
aI11
aI13
aI17
aI18
aI19
aI21
aI24
aI25
aa(lp1325
I2
aI3
aI5
aI6
aI7
aI9
aI10
aI14
aI15
aI16
aI18
aI19
aI20
aI21
aI25
aa(lp1326
I1
aI3
aI4
aI6
aI8
aI9
aI10
aI17
aI18
aI19
aI20
aI21
aI22
aI24
aI25
aa(lp1327
I1
aI3
aI4
aI5
aI7
aI10
aI13
aI14
aI16
aI17
aI18
aI20
aI22
aI23
aI25
aa(lp1328
I2
aI5
aI6
aI8
aI9
aI10
aI13
aI15
aI16
aI17
aI21
aI22
aI23
aI24
aI25
aa(lp1329
I2
aI3
aI4
aI5
aI7
aI10
aI11
aI13
aI15
aI16
aI18
aI22
aI23
aI24
aI25
aa(lp1330
I4
aI5
aI7
aI10
aI12
aI13
aI16
aI17
aI18
aI19
aI20
aI22
aI23
aI24
aI25
aa(lp1331
I1
aI2
aI3
aI5
aI6
aI7
aI10
aI11
aI14
aI15
aI16
aI18
aI23
aI24
aI25
aa(lp1332
I1
aI4
aI5
aI6
aI8
aI11
aI12
aI13
aI14
aI15
aI16
aI18
aI20
aI21
aI24
aa(lp1333
I3
aI4
aI5
aI7
aI8
aI9
aI10
aI11
aI12
aI14
aI17
aI18
aI20
aI22
aI24
aa(lp1334
I3
aI4
aI6
aI7
aI9
aI10
aI11
aI13
aI15
aI16
aI17
aI18
aI19
aI21
aI22
aa(lp1335
I1
aI3
aI4
aI6
aI7
aI9
aI10
aI11
aI13
aI16
aI17
aI18
aI23
aI24
aI25
aa(lp1336
I6
aI8
aI9
aI10
aI11
aI12
aI13
aI14
aI15
aI17
aI18
aI19
aI20
aI22
aI24
aa(lp1337
I1
aI3
aI5
aI6
aI8
aI9
aI10
aI12
aI13
aI15
aI16
aI19
aI21
aI23
aI25
aa(lp1338
I1
aI2
aI3
aI4
aI6
aI7
aI10
aI11
aI12
aI13
aI14
aI15
aI16
aI17
aI19
aa(lp1339
I2
aI3
aI4
aI5
aI6
aI7
aI8
aI11
aI13
aI14
aI16
aI20
aI21
aI23
aI24
aa(lp1340
I1
aI2
aI4
aI5
aI7
aI9
aI10
aI12
aI13
aI14
aI16
aI17
aI18
aI19
aI22
aa(lp1341
I1
aI3
aI4
aI8
aI9
aI10
aI13
aI14
aI15
aI16
aI17
aI20
aI21
aI23
aI24
aa(lp1342
I1
aI2
aI3
aI5
aI9
aI10
aI11
aI12
aI13
aI15
aI20
aI21
aI23
aI24
aI25
aa(lp1343
I2
aI4
aI5
aI9
aI10
aI11
aI13
aI14
aI15
aI16
aI17
aI19
aI21
aI23
aI24
aa(lp1344
I2
aI4
aI6
aI7
aI8
aI10
aI11
aI12
aI13
aI17
aI18
aI21
aI23
aI24
aI25
aa(lp1345
I1
aI3
aI7
aI8
aI9
aI10
aI11
aI14
aI15
aI17
aI19
aI21
aI22
aI24
aI25
aa(lp1346
I2
aI3
aI5
aI7
aI8
aI10
aI11
aI14
aI15
aI18
aI19
aI20
aI21
aI23
aI25
aa(lp1347
I1
aI3
aI5
aI6
aI7
aI8
aI10
aI12
aI13
aI14
aI17
aI18
aI20
aI23
aI24
aa(lp1348
I1
aI2
aI6
aI7
aI8
aI9
aI10
aI14
aI15
aI18
aI20
aI21
aI22
aI24
aI25
aa(lp1349
I2
aI3
aI4
aI5
aI6
aI7
aI8
aI12
aI14
aI16
aI18
aI19
aI21
aI24
aI25
aa(lp1350
I1
aI5
aI6
aI8
aI9
aI11
aI12
aI13
aI14
aI16
aI18
aI19
aI20
aI21
aI23
aa(lp1351
I2
aI4
aI6
aI7
aI10
aI11
aI13
aI17
aI19
aI20
aI21
aI22
aI23
aI24
aI25
aa(lp1352
I6
aI8
aI10
aI11
aI12
aI13
aI14
aI15
aI16
aI19
aI20
aI21
aI23
aI24
aI25
aa(lp1353
I3
aI5
aI7
aI8
aI9
aI10
aI11
aI12
aI14
aI18
aI21
aI22
aI23
aI24
aI25
aa(lp1354
I1
aI2
aI3
aI5
aI7
aI9
aI11
aI12
aI13
aI14
aI15
aI18
aI20
aI21
aI24
aa(lp1355
I1
aI2
aI3
aI4
aI6
aI7
aI8
aI11
aI15
aI16
aI18
aI20
aI21
aI22
aI24
aa(lp1356
I3
aI4
aI6
aI8
aI9
aI10
aI11
aI12
aI13
aI14
aI15
aI16
aI17
aI19
aI20
aa(lp1357
I3
aI7
aI8
aI9
aI10
aI11
aI12
aI13
aI15
aI17
aI18
aI20
aI21
aI22
aI23
aa(lp1358
I1
aI2
aI3
aI4
aI6
aI8
aI9
aI13
aI15
aI17
aI18
aI19
aI20
aI22
aI23
aa(lp1359
I3
aI5
aI7
aI8
aI9
aI11
aI13
aI14
aI15
aI16
aI17
aI18
aI20
aI21
aI23
aa(lp1360
I1
aI2
aI3
aI4
aI5
aI6
aI8
aI10
aI11
aI12
aI14
aI18
aI20
aI23
aI24
aa(lp1361
I1
aI4
aI5
aI11
aI12
aI13
aI14
aI15
aI16
aI17
aI18
aI19
aI20
aI23
aI25
aa(lp1362
I1
aI3
aI4
aI6
aI9
aI10
aI11
aI12
aI13
aI16
aI21
aI22
aI23
aI24
aI25
aa(lp1363
I5
aI7
aI9
aI10
aI12
aI13
aI14
aI15
aI16
aI17
aI19
aI20
aI21
aI22
aI23
aa(lp1364
I1
aI6
aI9
aI10
aI11
aI12
aI13
aI15
aI16
aI17
aI18
aI20
aI22
aI24
aI25
aa(lp1365
I2
aI3
aI6
aI9
aI10
aI12
aI14
aI15
aI19
aI20
aI21
aI22
aI23
aI24
aI25
aa(lp1366
I4
aI8
aI9
aI10
aI11
aI12
aI13
aI14
aI15
aI16
aI17
aI21
aI22
aI24
aI25
aa(lp1367
I2
aI3
aI4
aI5
aI6
aI7
aI9
aI14
aI15
aI16
aI17
aI18
aI20
aI23
aI24
aa(lp1368
I5
aI7
aI8
aI10
aI11
aI12
aI14
aI16
aI18
aI19
aI20
aI22
aI23
aI24
aI25
aa(lp1369
I3
aI4
aI5
aI9
aI10
aI11
aI12
aI13
aI14
aI16
aI17
aI18
aI21
aI22
aI24
aa(lp1370
I2
aI4
aI5
aI7
aI8
aI11
aI13
aI14
aI17
aI18
aI20
aI21
aI22
aI24
aI25
aa(lp1371
I3
aI4
aI5
aI7
aI13
aI15
aI17
aI18
aI19
aI20
aI21
aI22
aI23
aI24
aI25
aa(lp1372
I1
aI2
aI3
aI5
aI7
aI9
aI10
aI13
aI15
aI16
aI17
aI18
aI21
aI23
aI25
aa(lp1373
I1
aI2
aI3
aI4
aI5
aI6
aI7
aI8
aI12
aI17
aI18
aI20
aI21
aI23
aI24
aa(lp1374
I2
aI3
aI4
aI5
aI6
aI9
aI10
aI14
aI15
aI16
aI19
aI20
aI21
aI23
aI25
aa(lp1375
I1
aI5
aI6
aI9
aI10
aI11
aI14
aI15
aI16
aI18
aI20
aI22
aI23
aI24
aI25
aa(lp1376
I1
aI3
aI4
aI5
aI6
aI12
aI13
aI14
aI15
aI16
aI18
aI19
aI20
aI22
aI24
aa(lp1377
I1
aI5
aI6
aI8
aI9
aI10
aI12
aI13
aI15
aI17
aI19
aI20
aI21
aI22
aI25
aa(lp1378
I1
aI2
aI3
aI6
aI8
aI10
aI12
aI13
aI17
aI19
aI20
aI21
aI23
aI24
aI25
aa(lp1379
I1
aI2
aI4
aI5
aI7
aI8
aI9
aI10
aI12
aI14
aI15
aI17
aI18
aI21
aI22
aa(lp1380
I3
aI4
aI5
aI6
aI8
aI11
aI12
aI14
aI15
aI16
aI17
aI21
aI22
aI24
aI25
aa(lp1381
I1
aI4
aI6
aI8
aI9
aI10
aI12
aI13
aI14
aI16
aI17
aI18
aI19
aI21
aI25
aa(lp1382
I1
aI6
aI10
aI12
aI13
aI14
aI15
aI16
aI17
aI18
aI19
aI20
aI21
aI22
aI24
aa(lp1383
I2
aI6
aI7
aI8
aI9
aI13
aI14
aI15
aI16
aI17
aI20
aI21
aI22
aI24
aI25
aa(lp1384
I3
aI4
aI6
aI8
aI9
aI11
aI12
aI13
aI15
aI18
aI19
aI20
aI22
aI24
aI25
aa(lp1385
I4
aI5
aI8
aI9
aI10
aI11
aI12
aI13
aI14
aI15
aI17
aI18
aI19
aI20
aI23
aa(lp1386
I1
aI2
aI3
aI4
aI7
aI9
aI13
aI16
aI17
aI18
aI19
aI21
aI22
aI24
aI25
aa(lp1387
I1
aI3
aI4
aI5
aI6
aI7
aI9
aI11
aI12
aI13
aI14
aI15
aI16
aI18
aI24
aa(lp1388
I1
aI3
aI5
aI7
aI8
aI10
aI11
aI12
aI15
aI18
aI19
aI20
aI21
aI23
aI25
aa(lp1389
I1
aI2
aI4
aI5
aI6
aI8
aI10
aI12
aI14
aI15
aI16
aI17
aI18
aI20
aI21
aa(lp1390
I3
aI5
aI6
aI7
aI8
aI11
aI13
aI14
aI15
aI16
aI17
aI18
aI20
aI21
aI23
aa(lp1391
I1
aI3
aI5
aI6
aI10
aI11
aI12
aI15
aI16
aI17
aI19
aI20
aI21
aI24
aI25
aa(lp1392
I1
aI2
aI3
aI4
aI8
aI9
aI14
aI15
aI16
aI17
aI18
aI20
aI21
aI22
aI25
aa(lp1393
I3
aI4
aI5
aI7
aI9
aI10
aI11
aI12
aI13
aI14
aI17
aI18
aI20
aI22
aI23
aa(lp1394
I3
aI4
aI5
aI6
aI9
aI10
aI11
aI14
aI15
aI16
aI18
aI19
aI21
aI22
aI23
aa(lp1395
I5
aI6
aI7
aI8
aI11
aI12
aI13
aI14
aI16
aI17
aI18
aI19
aI22
aI23
aI25
aa(lp1396
I3
aI5
aI6
aI7
aI10
aI12
aI13
aI17
aI18
aI19
aI20
aI22
aI23
aI24
aI25
aa(lp1397
I1
aI3
aI4
aI5
aI6
aI8
aI9
aI11
aI12
aI13
aI14
aI18
aI21
aI22
aI25
aa(lp1398
I1
aI4
aI5
aI6
aI7
aI8
aI11
aI14
aI15
aI16
aI19
aI20
aI21
aI24
aI25
aa(lp1399
I4
aI5
aI6
aI8
aI9
aI12
aI13
aI14
aI15
aI17
aI19
aI21
aI22
aI24
aI25
aa(lp1400
I1
aI2
aI3
aI5
aI6
aI9
aI10
aI12
aI16
aI19
aI21
aI22
aI23
aI24
aI25
aa(lp1401
I1
aI3
aI4
aI5
aI6
aI7
aI8
aI14
aI15
aI18
aI19
aI21
aI22
aI24
aI25
aa(lp1402
I2
aI3
aI4
aI5
aI8
aI9
aI11
aI12
aI14
aI15
aI16
aI19
aI20
aI21
aI23
aa(lp1403
I3
aI4
aI5
aI8
aI9
aI10
aI11
aI12
aI13
aI15
aI16
aI17
aI21
aI23
aI25
aa(lp1404
I1
aI2
aI3
aI4
aI8
aI10
aI11
aI13
aI15
aI16
aI18
aI19
aI21
aI22
aI25
aa(lp1405
I2
aI3
aI4
aI7
aI9
aI10
aI11
aI14
aI15
aI16
aI18
aI19
aI20
aI23
aI24
aa(lp1406
I2
aI3
aI4
aI5
aI6
aI9
aI11
aI13
aI15
aI19
aI20
aI21
aI22
aI24
aI25
aa(lp1407
I1
aI2
aI4
aI5
aI6
aI7
aI10
aI12
aI13
aI20
aI21
aI22
aI23
aI24
aI25
aa(lp1408
I1
aI3
aI5
aI8
aI10
aI11
aI12
aI13
aI14
aI19
aI21
aI22
aI23
aI24
aI25
aa(lp1409
I1
aI2
aI4
aI6
aI7
aI8
aI11
aI12
aI14
aI16
aI17
aI19
aI22
aI24
aI25
aa(lp1410
I2
aI3
aI4
aI5
aI6
aI7
aI9
aI10
aI14
aI15
aI16
aI17
aI20
aI21
aI23
aa(lp1411
I1
aI5
aI6
aI7
aI8
aI9
aI10
aI12
aI13
aI14
aI15
aI16
aI17
aI21
aI23
aa(lp1412
I5
aI6
aI7
aI9
aI11
aI13
aI15
aI16
aI18
aI19
aI21
aI22
aI23
aI24
aI25
aa(lp1413
I2
aI3
aI4
aI5
aI6
aI7
aI8
aI9
aI10
aI13
aI16
aI17
aI18
aI21
aI25
aa(lp1414
I2
aI3
aI4
aI5
aI7
aI9
aI10
aI11
aI13
aI14
aI16
aI17
aI20
aI21
aI23
aa(lp1415
I2
aI4
aI5
aI6
aI10
aI12
aI13
aI15
aI17
aI18
aI19
aI22
aI23
aI24
aI25
aa(lp1416
I3
aI4
aI5
aI7
aI8
aI9
aI10
aI12
aI14
aI15
aI17
aI18
aI19
aI20
aI24
aa(lp1417
I1
aI2
aI3
aI4
aI6
aI7
aI9
aI11
aI13
aI14
aI15
aI18
aI19
aI22
aI23
aa(lp1418
I2
aI4
aI6
aI9
aI10
aI11
aI13
aI14
aI15
aI17
aI18
aI20
aI21
aI22
aI23
aa(lp1419
I2
aI3
aI6
aI7
aI11
aI12
aI15
aI16
aI17
aI18
aI19
aI20
aI21
aI23
aI24
aa(lp1420
I1
aI4
aI6
aI7
aI8
aI10
aI13
aI14
aI15
aI16
aI17
aI20
aI22
aI23
aI25
aa(lp1421
I3
aI5
aI6
aI7
aI8
aI9
aI11
aI12
aI14
aI17
aI18
aI19
aI20
aI23
aI24
aa(lp1422
I1
aI4
aI5
aI7
aI10
aI11
aI13
aI14
aI15
aI16
aI17
aI19
aI22
aI23
aI24
aa(lp1423
I1
aI2
aI4
aI5
aI7
aI8
aI11
aI12
aI13
aI14
aI15
aI16
aI19
aI22
aI23
aa(lp1424
I2
aI4
aI5
aI6
aI8
aI9
aI10
aI11
aI13
aI17
aI18
aI20
aI21
aI23
aI25
aa(lp1425
I1
aI3
aI4
aI5
aI8
aI9
aI11
aI12
aI13
aI14
aI16
aI19
aI20
aI21
aI25
aa(lp1426
I2
aI3
aI4
aI7
aI8
aI10
aI12
aI14
aI15
aI16
aI18
aI22
aI23
aI24
aI25
aa(lp1427
I1
aI2
aI7
aI10
aI11
aI12
aI14
aI15
aI16
aI17
aI18
aI19
aI20
aI22
aI25
aa(lp1428
I2
aI3
aI4
aI5
aI6
aI8
aI9
aI13
aI17
aI18
aI19
aI20
aI21
aI22
aI25
aa(lp1429
I5
aI7
aI8
aI9
aI10
aI12
aI13
aI14
aI15
aI16
aI18
aI19
aI20
aI21
aI25
aa(lp1430
I1
aI3
aI4
aI5
aI7
aI8
aI9
aI13
aI15
aI16
aI20
aI21
aI22
aI23
aI25
aa(lp1431
I1
aI2
aI7
aI8
aI9
aI10
aI12
aI14
aI15
aI16
aI17
aI19
aI20
aI23
aI25
aa(lp1432
I1
aI3
aI4
aI5
aI10
aI11
aI12
aI16
aI17
aI18
aI20
aI21
aI23
aI24
aI25
aa(lp1433
I3
aI6
aI7
aI9
aI10
aI12
aI14
aI15
aI16
aI18
aI20
aI22
aI23
aI24
aI25
aa(lp1434
I3
aI4
aI5
aI6
aI7
aI9
aI10
aI12
aI13
aI15
aI18
aI19
aI22
aI23
aI24
aa(lp1435
I1
aI2
aI3
aI4
aI5
aI6
aI9
aI10
aI12
aI16
aI17
aI19
aI20
aI21
aI23
aa(lp1436
I1
aI2
aI3
aI5
aI6
aI8
aI11
aI12
aI15
aI17
aI18
aI19
aI22
aI23
aI24
aa(lp1437
I2
aI4
aI5
aI6
aI7
aI8
aI9
aI11
aI13
aI14
aI17
aI19
aI20
aI23
aI25
aa(lp1438
I1
aI4
aI7
aI8
aI9
aI10
aI11
aI12
aI14
aI15
aI17
aI20
aI21
aI22
aI24
aa(lp1439
I1
aI2
aI3
aI5
aI11
aI12
aI13
aI14
aI15
aI16
aI17
aI18
aI19
aI22
aI24
aa(lp1440
I2
aI3
aI8
aI10
aI12
aI13
aI14
aI16
aI17
aI18
aI20
aI21
aI22
aI24
aI25
aa(lp1441
I1
aI3
aI4
aI5
aI6
aI7
aI9
aI10
aI11
aI13
aI16
aI19
aI22
aI23
aI25
aa(lp1442
I1
aI2
aI3
aI4
aI7
aI9
aI11
aI12
aI13
aI15
aI16
aI17
aI19
aI20
aI21
aa(lp1443
I1
aI2
aI3
aI5
aI7
aI8
aI9
aI10
aI11
aI12
aI14
aI15
aI16
aI17
aI24
aa(lp1444
I1
aI2
aI4
aI5
aI6
aI9
aI10
aI11
aI14
aI15
aI17
aI18
aI20
aI21
aI24
aa(lp1445
I1
aI4
aI5
aI6
aI8
aI10
aI13
aI15
aI16
aI17
aI18
aI20
aI22
aI23
aI25
aa(lp1446
I1
aI4
aI6
aI7
aI8
aI12
aI13
aI16
aI17
aI20
aI21
aI22
aI23
aI24
aI25
aa(lp1447
I1
aI3
aI4
aI5
aI8
aI11
aI12
aI13
aI17
aI18
aI19
aI21
aI22
aI24
aI25
aa(lp1448
I1
aI3
aI4
aI5
aI6
aI8
aI12
aI13
aI16
aI18
aI19
aI21
aI22
aI23
aI24
aa(lp1449
I1
aI3
aI4
aI5
aI6
aI7
aI8
aI9
aI11
aI15
aI16
aI20
aI22
aI23
aI24
aa(lp1450
I1
aI2
aI4
aI5
aI8
aI9
aI10
aI13
aI14
aI16
aI17
aI19
aI20
aI22
aI24
aa(lp1451
I1
aI2
aI3
aI5
aI10
aI12
aI13
aI14
aI15
aI19
aI20
aI21
aI23
aI24
aI25
aa(lp1452
I2
aI5
aI7
aI8
aI10
aI11
aI13
aI14
aI15
aI17
aI20
aI21
aI23
aI24
aI25
aa(lp1453
I1
aI2
aI5
aI8
aI9
aI10
aI13
aI14
aI15
aI16
aI19
aI21
aI23
aI24
aI25
aa(lp1454
I1
aI3
aI4
aI7
aI10
aI12
aI13
aI14
aI18
aI19
aI20
aI21
aI22
aI23
aI25
aa(lp1455
I2
aI5
aI7
aI8
aI14
aI15
aI16
aI17
aI18
aI19
aI20
aI21
aI22
aI23
aI25
aa(lp1456
I1
aI2
aI6
aI7
aI8
aI9
aI12
aI13
aI14
aI15
aI19
aI20
aI21
aI24
aI25
aa(lp1457
I1
aI2
aI3
aI4
aI7
aI8
aI9
aI10
aI11
aI13
aI14
aI15
aI18
aI23
aI24
aa(lp1458
I1
aI2
aI3
aI5
aI7
aI9
aI11
aI14
aI17
aI18
aI19
aI20
aI22
aI23
aI24
aa(lp1459
I1
aI4
aI6
aI9
aI10
aI12
aI13
aI14
aI16
aI17
aI18
aI19
aI20
aI24
aI25
aa(lp1460
I1
aI3
aI5
aI7
aI11
aI14
aI15
aI16
aI17
aI18
aI19
aI20
aI21
aI24
aI25
aa(lp1461
I2
aI4
aI5
aI6
aI9
aI10
aI11
aI15
aI17
aI18
aI19
aI21
aI23
aI24
aI25
aa(lp1462
I1
aI3
aI4
aI5
aI7
aI9
aI12
aI13
aI14
aI16
aI17
aI20
aI21
aI24
aI25
aa(lp1463
I3
aI4
aI6
aI7
aI10
aI11
aI13
aI14
aI15
aI17
aI19
aI20
aI22
aI23
aI24
aa(lp1464
I1
aI4
aI9
aI10
aI11
aI12
aI13
aI14
aI15
aI16
aI17
aI18
aI22
aI23
aI24
aa(lp1465
I2
aI5
aI7
aI8
aI9
aI10
aI12
aI14
aI16
aI19
aI20
aI21
aI22
aI23
aI24
aa(lp1466
I2
aI3
aI4
aI6
aI10
aI11
aI12
aI14
aI19
aI20
aI21
aI22
aI23
aI24
aI25
aa(lp1467
I1
aI4
aI5
aI6
aI9
aI10
aI11
aI12
aI19
aI20
aI21
aI22
aI23
aI24
aI25
aa(lp1468
I2
aI3
aI5
aI6
aI8
aI11
aI12
aI13
aI14
aI18
aI19
aI20
aI21
aI23
aI24
aa(lp1469
I1
aI2
aI3
aI5
aI6
aI7
aI8
aI9
aI11
aI13
aI16
aI17
aI18
aI19
aI20
aa(lp1470
I2
aI3
aI7
aI8
aI11
aI12
aI13
aI14
aI15
aI18
aI20
aI21
aI22
aI23
aI24
aa(lp1471
I1
aI2
aI4
aI6
aI7
aI8
aI10
aI11
aI13
aI15
aI18
aI20
aI21
aI22
aI24
aa(lp1472
I2
aI3
aI4
aI5
aI7
aI8
aI10
aI12
aI13
aI14
aI18
aI21
aI22
aI23
aI24
aa(lp1473
I1
aI4
aI5
aI7
aI8
aI9
aI10
aI12
aI14
aI16
aI20
aI22
aI23
aI24
aI25
aa(lp1474
I1
aI2
aI5
aI7
aI8
aI10
aI11
aI13
aI14
aI15
aI18
aI19
aI20
aI21
aI25
aa(lp1475
I1
aI2
aI3
aI5
aI6
aI9
aI10
aI12
aI13
aI15
aI18
aI20
aI21
aI24
aI25
aa(lp1476
I2
aI4
aI5
aI6
aI7
aI9
aI10
aI12
aI13
aI14
aI16
aI19
aI21
aI22
aI25
aa(lp1477
I1
aI2
aI3
aI4
aI5
aI6
aI7
aI10
aI12
aI15
aI17
aI18
aI21
aI22
aI23
aa(lp1478
I2
aI5
aI6
aI7
aI10
aI11
aI12
aI15
aI16
aI17
aI18
aI19
aI21
aI24
aI25
aa(lp1479
I2
aI3
aI5
aI6
aI9
aI11
aI13
aI14
aI15
aI16
aI17
aI18
aI20
aI22
aI23
aa(lp1480
I1
aI6
aI7
aI10
aI11
aI12
aI13
aI15
aI16
aI17
aI19
aI20
aI21
aI22
aI25
aa(lp1481
I2
aI3
aI5
aI7
aI8
aI9
aI11
aI17
aI18
aI19
aI20
aI21
aI23
aI24
aI25
aa(lp1482
I1
aI2
aI4
aI5
aI7
aI8
aI9
aI10
aI11
aI12
aI14
aI15
aI19
aI23
aI24
aa(lp1483
I3
aI4
aI5
aI6
aI7
aI9
aI11
aI13
aI14
aI15
aI17
aI20
aI21
aI22
aI23
aa(lp1484
I1
aI2
aI3
aI4
aI6
aI7
aI9
aI10
aI12
aI17
aI18
aI19
aI21
aI22
aI25
aa(lp1485
I1
aI2
aI3
aI5
aI8
aI9
aI11
aI13
aI15
aI17
aI18
aI19
aI23
aI24
aI25
aa(lp1486
I2
aI4
aI5
aI8
aI9
aI10
aI12
aI14
aI18
aI19
aI20
aI21
aI22
aI23
aI25
aa(lp1487
I1
aI2
aI3
aI4
aI5
aI6
aI10
aI11
aI12
aI15
aI16
aI19
aI21
aI22
aI25
aa(lp1488
I1
aI4
aI5
aI6
aI10
aI11
aI12
aI13
aI16
aI19
aI20
aI21
aI23
aI24
aI25
aa(lp1489
I2
aI4
aI7
aI8
aI9
aI10
aI12
aI13
aI14
aI15
aI19
aI20
aI22
aI23
aI25
aa(lp1490
I1
aI3
aI4
aI5
aI7
aI8
aI9
aI11
aI13
aI14
aI15
aI18
aI19
aI20
aI22
aa(lp1491
I2
aI4
aI5
aI6
aI7
aI9
aI11
aI13
aI14
aI19
aI20
aI22
aI23
aI24
aI25
aa(lp1492
I2
aI3
aI4
aI5
aI7
aI8
aI10
aI12
aI15
aI16
aI17
aI18
aI19
aI24
aI25
aa(lp1493
I2
aI5
aI8
aI10
aI11
aI13
aI14
aI15
aI16
aI19
aI20
aI21
aI23
aI24
aI25
aa(lp1494
I1
aI2
aI3
aI4
aI9
aI10
aI11
aI12
aI13
aI15
aI17
aI19
aI20
aI22
aI25
aa(lp1495
I1
aI2
aI3
aI4
aI5
aI8
aI10
aI12
aI13
aI14
aI18
aI22
aI23
aI24
aI25
aa(lp1496
I2
aI3
aI6
aI7
aI9
aI10
aI11
aI12
aI13
aI15
aI17
aI19
aI20
aI23
aI25
aa(lp1497
I1
aI2
aI5
aI7
aI11
aI12
aI13
aI14
aI15
aI16
aI17
aI18
aI19
aI22
aI23
aa(lp1498
I4
aI5
aI7
aI8
aI10
aI11
aI14
aI15
aI16
aI17
aI18
aI21
aI23
aI24
aI25
aa(lp1499
I1
aI2
aI3
aI4
aI5
aI7
aI8
aI12
aI13
aI14
aI15
aI18
aI19
aI23
aI24
aa(lp1500
I1
aI2
aI3
aI5
aI7
aI10
aI11
aI12
aI13
aI15
aI17
aI18
aI19
aI20
aI22
aa(lp1501
I1
aI6
aI7
aI8
aI9
aI10
aI11
aI13
aI16
aI17
aI18
aI21
aI22
aI24
aI25
aa(lp1502
I1
aI2
aI3
aI4
aI5
aI7
aI11
aI12
aI13
aI15
aI17
aI18
aI20
aI22
aI24
aa(lp1503
I1
aI2
aI3
aI7
aI12
aI15
aI16
aI17
aI18
aI20
aI21
aI22
aI23
aI24
aI25
aa(lp1504
I1
aI4
aI5
aI7
aI8
aI11
aI12
aI14
aI17
aI18
aI19
aI21
aI23
aI24
aI25
aa(lp1505
I1
aI2
aI3
aI6
aI7
aI11
aI14
aI16
aI17
aI18
aI19
aI20
aI22
aI24
aI25
aa(lp1506
I3
aI4
aI5
aI8
aI9
aI10
aI13
aI14
aI17
aI18
aI19
aI20
aI21
aI22
aI24
aa(lp1507
I1
aI2
aI3
aI4
aI5
aI8
aI10
aI11
aI13
aI14
aI17
aI19
aI21
aI23
aI24
aa(lp1508
I1
aI3
aI7
aI8
aI9
aI10
aI11
aI12
aI14
aI17
aI19
aI21
aI22
aI23
aI24
aa(lp1509
I1
aI2
aI3
aI6
aI7
aI8
aI9
aI13
aI14
aI15
aI17
aI18
aI19
aI22
aI24
aa(lp1510
I1
aI3
aI4
aI7
aI8
aI9
aI10
aI11
aI12
aI13
aI15
aI18
aI19
aI22
aI24
aa(lp1511
I2
aI4
aI5
aI8
aI9
aI10
aI11
aI12
aI13
aI15
aI19
aI20
aI21
aI23
aI24
aa(lp1512
I2
aI3
aI4
aI6
aI10
aI11
aI12
aI13
aI15
aI16
aI17
aI19
aI21
aI22
aI24
aa(lp1513
I3
aI4
aI6
aI7
aI9
aI10
aI11
aI12
aI13
aI14
aI16
aI18
aI21
aI22
aI24
aa(lp1514
I3
aI4
aI5
aI7
aI8
aI11
aI12
aI13
aI15
aI16
aI17
aI19
aI20
aI21
aI24
aa(lp1515
I1
aI2
aI3
aI5
aI8
aI9
aI11
aI12
aI13
aI16
aI17
aI18
aI19
aI20
aI23
aa(lp1516
I1
aI2
aI6
aI7
aI10
aI11
aI12
aI14
aI16
aI18
aI19
aI20
aI22
aI23
aI24
aa(lp1517
I2
aI3
aI5
aI8
aI10
aI11
aI12
aI14
aI15
aI18
aI20
aI21
aI23
aI24
aI25
aa(lp1518
I2
aI3
aI4
aI5
aI7
aI8
aI11
aI12
aI14
aI16
aI17
aI20
aI22
aI24
aI25
aa(lp1519
I1
aI4
aI6
aI8
aI13
aI14
aI16
aI17
aI18
aI20
aI21
aI22
aI23
aI24
aI25
aa(lp1520
I1
aI2
aI4
aI8
aI9
aI10
aI12
aI13
aI14
aI16
aI17
aI18
aI19
aI24
aI25
aa(lp1521
I1
aI2
aI3
aI4
aI5
aI7
aI8
aI12
aI14
aI15
aI17
aI19
aI20
aI23
aI24
aa(lp1522
I1
aI8
aI9
aI10
aI11
aI13
aI14
aI15
aI16
aI18
aI19
aI20
aI21
aI23
aI24
aa(lp1523
I3
aI5
aI6
aI7
aI9
aI10
aI12
aI13
aI14
aI16
aI18
aI19
aI21
aI23
aI25
aa(lp1524
I1
aI3
aI5
aI6
aI7
aI8
aI9
aI10
aI13
aI14
aI20
aI22
aI23
aI24
aI25
aa(lp1525
I1
aI2
aI4
aI5
aI8
aI10
aI12
aI14
aI15
aI18
aI19
aI20
aI21
aI22
aI25
aa(lp1526
I5
aI7
aI8
aI9
aI10
aI11
aI13
aI15
aI17
aI18
aI20
aI21
aI22
aI23
aI25
aa(lp1527
I1
aI2
aI3
aI5
aI6
aI7
aI9
aI10
aI14
aI15
aI20
aI21
aI22
aI24
aI25
aa(lp1528
I1
aI2
aI4
aI5
aI6
aI8
aI9
aI10
aI17
aI18
aI20
aI21
aI23
aI24
aI25
aa(lp1529
I2
aI3
aI4
aI5
aI8
aI11
aI13
aI14
aI16
aI17
aI18
aI19
aI20
aI21
aI24
aa(lp1530
I2
aI4
aI5
aI7
aI9
aI10
aI12
aI14
aI15
aI16
aI18
aI20
aI22
aI23
aI24
aa(lp1531
I1
aI2
aI3
aI4
aI7
aI8
aI10
aI11
aI13
aI14
aI15
aI19
aI22
aI23
aI24
aa(lp1532
I1
aI2
aI3
aI8
aI9
aI10
aI11
aI12
aI13
aI14
aI17
aI18
aI20
aI22
aI25
aa(lp1533
I1
aI3
aI4
aI6
aI7
aI11
aI12
aI13
aI14
aI15
aI16
aI19
aI20
aI21
aI24
aa(lp1534
I1
aI4
aI5
aI8
aI9
aI10
aI11
aI12
aI13
aI14
aI16
aI17
aI19
aI21
aI24
aa(lp1535
I3
aI4
aI5
aI7
aI8
aI12
aI13
aI15
aI17
aI18
aI21
aI22
aI23
aI24
aI25
aa(lp1536
I1
aI3
aI5
aI6
aI7
aI8
aI9
aI10
aI11
aI12
aI13
aI19
aI20
aI23
aI25
aa(lp1537
I1
aI2
aI3
aI4
aI10
aI11
aI13
aI14
aI15
aI17
aI18
aI20
aI21
aI22
aI24
aa(lp1538
I2
aI4
aI5
aI7
aI8
aI9
aI10
aI13
aI14
aI15
aI17
aI18
aI19
aI21
aI23
aa(lp1539
I1
aI3
aI4
aI8
aI11
aI12
aI13
aI14
aI16
aI17
aI18
aI19
aI20
aI21
aI25
aa(lp1540
I1
aI2
aI3
aI7
aI9
aI10
aI11
aI12
aI14
aI15
aI16
aI17
aI19
aI22
aI23
aa(lp1541
I2
aI3
aI4
aI5
aI7
aI11
aI13
aI14
aI15
aI18
aI19
aI20
aI21
aI22
aI25
aa(lp1542
I2
aI3
aI5
aI7
aI8
aI10
aI11
aI13
aI15
aI16
aI17
aI20
aI21
aI22
aI24
aa(lp1543
I1
aI2
aI6
aI7
aI8
aI9
aI12
aI13
aI15
aI17
aI19
aI20
aI23
aI24
aI25
aa(lp1544
I1
aI2
aI4
aI7
aI8
aI9
aI11
aI12
aI14
aI16
aI17
aI21
aI22
aI23
aI24
aa(lp1545
I3
aI5
aI7
aI8
aI10
aI11
aI12
aI15
aI16
aI17
aI20
aI22
aI23
aI24
aI25
aa(lp1546
I1
aI3
aI6
aI7
aI8
aI10
aI11
aI14
aI15
aI18
aI19
aI20
aI22
aI24
aI25
aa(lp1547
I1
aI2
aI5
aI6
aI8
aI9
aI10
aI11
aI13
aI15
aI17
aI18
aI19
aI21
aI25
aa(lp1548
I2
aI3
aI4
aI9
aI10
aI11
aI12
aI14
aI15
aI17
aI18
aI20
aI21
aI22
aI23
aa(lp1549
I1
aI2
aI3
aI4
aI5
aI7
aI8
aI10
aI11
aI13
aI18
aI20
aI23
aI24
aI25
aa(lp1550
I3
aI4
aI5
aI7
aI8
aI13
aI14
aI15
aI16
aI17
aI20
aI22
aI23
aI24
aI25
aa(lp1551
I1
aI3
aI5
aI7
aI8
aI11
aI13
aI14
aI15
aI17
aI19
aI20
aI22
aI23
aI25
aa(lp1552
I2
aI3
aI7
aI8
aI9
aI12
aI14
aI15
aI16
aI19
aI20
aI21
aI22
aI24
aI25
aa(lp1553
I1
aI2
aI4
aI8
aI9
aI11
aI12
aI13
aI15
aI17
aI18
aI19
aI21
aI22
aI25
aa(lp1554
I1
aI3
aI4
aI5
aI7
aI8
aI9
aI10
aI13
aI14
aI16
aI18
aI19
aI24
aI25
aa(lp1555
I1
aI2
aI6
aI8
aI9
aI10
aI12
aI13
aI14
aI16
aI18
aI20
aI22
aI23
aI25
aa(lp1556
I1
aI2
aI3
aI5
aI6
aI8
aI12
aI15
aI16
aI17
aI19
aI21
aI22
aI23
aI25
aa(lp1557
I2
aI3
aI4
aI5
aI6
aI9
aI12
aI16
aI17
aI18
aI20
aI21
aI22
aI24
aI25
aa(lp1558
I1
aI2
aI4
aI5
aI6
aI9
aI11
aI14
aI15
aI16
aI17
aI18
aI21
aI22
aI25
aa(lp1559
I3
aI4
aI5
aI6
aI7
aI9
aI10
aI11
aI14
aI16
aI18
aI19
aI20
aI23
aI25
aa(lp1560
I1
aI2
aI3
aI4
aI5
aI7
aI8
aI9
aI11
aI14
aI17
aI18
aI20
aI24
aI25
aa(lp1561
I3
aI5
aI6
aI7
aI8
aI12
aI13
aI15
aI16
aI18
aI20
aI21
aI22
aI24
aI25
aa(lp1562
I1
aI2
aI3
aI4
aI5
aI6
aI7
aI8
aI9
aI11
aI12
aI14
aI16
aI17
aI18
aa(lp1563
I1
aI2
aI3
aI5
aI6
aI9
aI10
aI12
aI13
aI17
aI18
aI20
aI21
aI22
aI23
aa(lp1564
I3
aI4
aI6
aI8
aI9
aI11
aI12
aI13
aI16
aI17
aI18
aI19
aI20
aI21
aI24
aa(lp1565
I1
aI3
aI6
aI7
aI8
aI9
aI10
aI11
aI12
aI13
aI15
aI17
aI18
aI24
aI25
aa(lp1566
I1
aI2
aI4
aI5
aI7
aI8
aI9
aI13
aI14
aI15
aI16
aI19
aI23
aI24
aI25
aa(lp1567
I2
aI3
aI5
aI7
aI9
aI10
aI11
aI12
aI14
aI15
aI17
aI18
aI19
aI21
aI24
aa(lp1568
I1
aI2
aI3
aI4
aI6
aI7
aI10
aI11
aI13
aI16
aI17
aI19
aI21
aI22
aI24
aa(lp1569
I2
aI4
aI8
aI9
aI10
aI12
aI13
aI14
aI16
aI18
aI20
aI21
aI23
aI24
aI25
aa(lp1570
I1
aI3
aI7
aI8
aI9
aI11
aI13
aI16
aI18
aI19
aI20
aI21
aI23
aI24
aI25
aa(lp1571
I1
aI3
aI4
aI5
aI6
aI7
aI11
aI12
aI14
aI17
aI18
aI19
aI23
aI24
aI25
aa(lp1572
I2
aI4
aI5
aI6
aI8
aI9
aI10
aI13
aI16
aI18
aI19
aI21
aI22
aI23
aI24
aa(lp1573
I2
aI6
aI7
aI8
aI10
aI11
aI12
aI13
aI14
aI15
aI16
aI17
aI18
aI19
aI23
aa(lp1574
I1
aI2
aI3
aI5
aI6
aI7
aI10
aI11
aI12
aI14
aI15
aI17
aI18
aI21
aI22
aa(lp1575
I1
aI3
aI5
aI6
aI7
aI9
aI10
aI11
aI12
aI14
aI16
aI17
aI22
aI23
aI25
aa(lp1576
I1
aI2
aI5
aI7
aI8
aI9
aI11
aI12
aI14
aI15
aI16
aI18
aI20
aI21
aI25
aa(lp1577
I3
aI5
aI6
aI7
aI9
aI10
aI11
aI13
aI15
aI16
aI17
aI18
aI19
aI21
aI24
aa(lp1578
I4
aI6
aI8
aI9
aI10
aI12
aI13
aI14
aI16
aI17
aI18
aI19
aI21
aI22
aI24
aa(lp1579
I1
aI2
aI4
aI6
aI7
aI10
aI12
aI13
aI14
aI15
aI16
aI18
aI21
aI22
aI23
aa(lp1580
I3
aI4
aI7
aI10
aI11
aI12
aI13
aI14
aI15
aI16
aI18
aI20
aI22
aI23
aI25
aa(lp1581
I3
aI4
aI5
aI6
aI7
aI8
aI11
aI12
aI13
aI16
aI20
aI21
aI23
aI24
aI25
aa(lp1582
I1
aI2
aI5
aI7
aI8
aI10
aI11
aI14
aI16
aI17
aI18
aI19
aI23
aI24
aI25
aa(lp1583
I2
aI3
aI4
aI6
aI7
aI9
aI10
aI14
aI15
aI16
aI17
aI19
aI20
aI23
aI25
aa(lp1584
I1
aI2
aI3
aI5
aI6
aI11
aI12
aI14
aI15
aI16
aI17
aI19
aI20
aI24
aI25
aa.